
hello:     file format elf32-tradbigmips


Disassembly of section .init:

00400254 <_init>:
  400254:	3c1c000a 	lui	gp,0xa
  400258:	279cc88c 	addiu	gp,gp,-14196
  40025c:	0399e021 	addu	gp,gp,t9
  400260:	27bdffe0 	addiu	sp,sp,-32
  400264:	afbc0010 	sw	gp,16(sp)
  400268:	afbf001c 	sw	ra,28(sp)
  40026c:	8f8282fc 	lw	v0,-32004(gp)
  400270:	10400004 	beqz	v0,400284 <_init+0x30>
  400274:	00000000 	nop
  400278:	8f9982fc 	lw	t9,-32004(gp)
  40027c:	0320f809 	jalr	t9
  400280:	00000000 	nop
  400284:	04110001 	bal	40028c <_init+0x38>
  400288:	00000000 	nop
  40028c:	3c1c004a 	lui	gp,0x4a
  400290:	279ccae0 	addiu	gp,gp,-13600
  400294:	8f998030 	lw	t9,-32720(gp)
  400298:	273907ac 	addiu	t9,t9,1964
  40029c:	0320f809 	jalr	t9
  4002a0:	00000000 	nop
  4002a4:	04110001 	bal	4002ac <_init+0x58>
  4002a8:	00000000 	nop
  4002ac:	3c1c004a 	lui	gp,0x4a
  4002b0:	279ccae0 	addiu	gp,gp,-13600
  4002b4:	8f998034 	lw	t9,-32716(gp)
  4002b8:	27396510 	addiu	t9,t9,25872
  4002bc:	0320f809 	jalr	t9
  4002c0:	00000000 	nop
  4002c4:	8fbf001c 	lw	ra,28(sp)
  4002c8:	03e00008 	jr	ra
  4002cc:	27bd0020 	addiu	sp,sp,32

Disassembly of section .text:

004002d0 <abort>:
  4002d0:	3c1c004a 	lui	gp,0x4a
  4002d4:	27bdfeb8 	addiu	sp,sp,-328
  4002d8:	279ccae0 	addiu	gp,gp,-13600
  4002dc:	afbf0144 	sw	ra,324(sp)
  4002e0:	8f828038 	lw	v0,-32712(gp)
  4002e4:	afb30140 	sw	s3,320(sp)
  4002e8:	afb2013c 	sw	s2,316(sp)
  4002ec:	afb10138 	sw	s1,312(sp)
  4002f0:	afb00134 	sw	s0,308(sp)
  4002f4:	afbc0010 	sw	gp,16(sp)
  4002f8:	8c420000 	lw	v0,0(v0)
  4002fc:	afa2012c 	sw	v0,300(sp)
  400300:	7c03e83b 	rdhwr	v1,$29
  400304:	3c110049 	lui	s1,0x49
  400308:	24728b70 	addiu	s2,v1,-29840
  40030c:	263053e4 	addiu	s0,s1,21476
  400310:	8e020008 	lw	v0,8(s0)
  400314:	10520011 	beq	v0,s2,40035c <abort+0x8c>
  400318:	3c030049 	lui	v1,0x49
  40031c:	c22353e4 	ll	v1,21476(s1)
  400320:	14600006 	bnez	v1,40033c <abort+0x6c>
  400324:	24020000 	li	v0,0
  400328:	24010001 	li	at,1
  40032c:	e22153e4 	sc	at,21476(s1)
  400330:	1020fffa 	beqz	at,40031c <abort+0x4c>
  400334:	24020001 	li	v0,1
  400338:	0000000f 	sync
  40033c:	14400005 	bnez	v0,400354 <abort+0x84>
  400340:	3c190041 	lui	t9,0x41
  400344:	27392170 	addiu	t9,t9,8560
  400348:	04114789 	bal	412170 <__lll_lock_wait_private>
  40034c:	02002025 	move	a0,s0
  400350:	8fbc0010 	lw	gp,16(sp)
  400354:	ae120008 	sw	s2,8(s0)
  400358:	3c030049 	lui	v1,0x49
  40035c:	8e020004 	lw	v0,4(s0)
  400360:	00609025 	move	s2,v1
  400364:	8c6353f0 	lw	v1,21488(v1)
  400368:	24420001 	addiu	v0,v0,1
  40036c:	14600011 	bnez	v1,4003b4 <abort+0xe4>
  400370:	ae020004 	sw	v0,4(s0)
  400374:	8f99803c 	lw	t9,-32708(gp)
  400378:	24020001 	li	v0,1
  40037c:	2406007c 	li	a2,124
  400380:	00002825 	move	a1,zero
  400384:	ae4253f0 	sw	v0,21488(s2)
  400388:	041169c5 	bal	41aaa0 <memset>
  40038c:	27a40020 	addiu	a0,sp,32
  400390:	3c190043 	lui	t9,0x43
  400394:	24020020 	li	v0,32
  400398:	00003025 	move	a2,zero
  40039c:	24040002 	li	a0,2
  4003a0:	afa2001c 	sw	v0,28(sp)
  4003a4:	27391220 	addiu	t9,t9,4640
  4003a8:	0320f809 	jalr	t9
  4003ac:	27a5001c 	addiu	a1,sp,28
  4003b0:	8fbc0010 	lw	gp,16(sp)
  4003b4:	8e4253f0 	lw	v0,21488(s2)
  4003b8:	24030001 	li	v1,1
  4003bc:	14430033 	bne	v0,v1,40048c <abort+0x1bc>
  4003c0:	00000000 	nop
  4003c4:	8e020004 	lw	v0,4(s0)
  4003c8:	ae4053f0 	sw	zero,21488(s2)
  4003cc:	2442ffff 	addiu	v0,v0,-1
  4003d0:	14400011 	bnez	v0,400418 <abort+0x148>
  4003d4:	ae020004 	sw	v0,4(s0)
  4003d8:	ae000008 	sw	zero,8(s0)
  4003dc:	0000000f 	sync
  4003e0:	c22253e4 	ll	v0,21476(s1)
  4003e4:	24010000 	li	at,0
  4003e8:	e22153e4 	sc	at,21476(s1)
  4003ec:	1020fffc 	beqz	at,4003e0 <abort+0x110>
  4003f0:	00000000 	nop
  4003f4:	28420002 	slti	v0,v0,2
  4003f8:	14400008 	bnez	v0,40041c <abort+0x14c>
  4003fc:	3c190040 	lui	t9,0x40
  400400:	02002025 	move	a0,s0
  400404:	24050081 	li	a1,129
  400408:	24060001 	li	a2,1
  40040c:	00003825 	move	a3,zero
  400410:	2402108e 	li	v0,4238
  400414:	0000000c 	syscall
  400418:	3c190040 	lui	t9,0x40
  40041c:	273965d0 	addiu	t9,t9,26064
  400420:	0411186b 	bal	4065d0 <raise>
  400424:	24040006 	li	a0,6
  400428:	8fbc0010 	lw	gp,16(sp)
  40042c:	7c03e83b 	rdhwr	v1,$29
  400430:	8e020008 	lw	v0,8(s0)
  400434:	24738b70 	addiu	s3,v1,-29840
  400438:	10530010 	beq	v0,s3,40047c <abort+0x1ac>
  40043c:	00000000 	nop
  400440:	c22353e4 	ll	v1,21476(s1)
  400444:	14600006 	bnez	v1,400460 <abort+0x190>
  400448:	24020000 	li	v0,0
  40044c:	24010001 	li	at,1
  400450:	e22153e4 	sc	at,21476(s1)
  400454:	1020fffa 	beqz	at,400440 <abort+0x170>
  400458:	24020001 	li	v0,1
  40045c:	0000000f 	sync
  400460:	14400005 	bnez	v0,400478 <abort+0x1a8>
  400464:	3c190041 	lui	t9,0x41
  400468:	27392170 	addiu	t9,t9,8560
  40046c:	04114740 	bal	412170 <__lll_lock_wait_private>
  400470:	02002025 	move	a0,s0
  400474:	8fbc0010 	lw	gp,16(sp)
  400478:	ae130008 	sw	s3,8(s0)
  40047c:	8e020004 	lw	v0,4(s0)
  400480:	24420001 	addiu	v0,v0,1
  400484:	10000004 	b	400498 <abort+0x1c8>
  400488:	ae020004 	sw	v0,4(s0)
  40048c:	24030002 	li	v1,2
  400490:	14430016 	bne	v0,v1,4004ec <abort+0x21c>
  400494:	8e4353f0 	lw	v1,21488(s2)
  400498:	8f99803c 	lw	t9,-32708(gp)
  40049c:	24020003 	li	v0,3
  4004a0:	27b0009c 	addiu	s0,sp,156
  4004a4:	24060090 	li	a2,144
  4004a8:	ae4253f0 	sw	v0,21488(s2)
  4004ac:	00002825 	move	a1,zero
  4004b0:	0411697b 	bal	41aaa0 <memset>
  4004b4:	02002025 	move	a0,s0
  4004b8:	24060080 	li	a2,128
  4004bc:	8fbc0010 	lw	gp,16(sp)
  4004c0:	240500ff 	li	a1,255
  4004c4:	8f99803c 	lw	t9,-32708(gp)
  4004c8:	04116975 	bal	41aaa0 <memset>
  4004cc:	27a400a4 	addiu	a0,sp,164
  4004d0:	3c190043 	lui	t9,0x43
  4004d4:	00003025 	move	a2,zero
  4004d8:	24040006 	li	a0,6
  4004dc:	273911d8 	addiu	t9,t9,4568
  4004e0:	0320f809 	jalr	t9
  4004e4:	02002825 	move	a1,s0
  4004e8:	8e4353f0 	lw	v1,21488(s2)
  4004ec:	24020003 	li	v0,3
  4004f0:	14620008 	bne	v1,v0,400514 <abort+0x244>
  4004f4:	8e4353f0 	lw	v1,21488(s2)
  4004f8:	3c190040 	lui	t9,0x40
  4004fc:	24020004 	li	v0,4
  400500:	24040006 	li	a0,6
  400504:	273965d0 	addiu	t9,t9,26064
  400508:	04111831 	bal	4065d0 <raise>
  40050c:	ae4253f0 	sw	v0,21488(s2)
  400510:	8e4353f0 	lw	v1,21488(s2)
  400514:	24020004 	li	v0,4
  400518:	14620005 	bne	v1,v0,400530 <abort+0x260>
  40051c:	8e4353f0 	lw	v1,21488(s2)
  400520:	24020005 	li	v0,5
  400524:	ae4253f0 	sw	v0,21488(s2)
  400528:	00ff000d 	break	0xff
  40052c:	8e4353f0 	lw	v1,21488(s2)
  400530:	24020005 	li	v0,5
  400534:	14620006 	bne	v1,v0,400550 <abort+0x280>
  400538:	3c190042 	lui	t9,0x42
  40053c:	24020006 	li	v0,6
  400540:	2404007f 	li	a0,127
  400544:	2739c2d0 	addiu	t9,t9,-15664
  400548:	04116f61 	bal	41c2d0 <_exit>
  40054c:	ae4253f0 	sw	v0,21488(s2)
  400550:	00ff000d 	break	0xff
  400554:	1000fffe 	b	400550 <abort+0x280>
  400558:	00000000 	nop

0040055c <_dl_start>:
  40055c:	3c190040 	lui	t9,0x40
  400560:	27bdffe0 	addiu	sp,sp,-32
  400564:	273902d0 	addiu	t9,t9,720
  400568:	afbf001c 	sw	ra,28(sp)
  40056c:	0411ff58 	bal	4002d0 <abort>
  400570:	00000000 	nop

00400574 <fini>:
  400574:	27bdffd8 	addiu	sp,sp,-40
  400578:	3c1c004a 	lui	gp,0x4a
  40057c:	afb0001c 	sw	s0,28(sp)
  400580:	3c100049 	lui	s0,0x49
  400584:	afb10020 	sw	s1,32(sp)
  400588:	279ccae0 	addiu	gp,gp,-13600
  40058c:	261059fc 	addiu	s0,s0,23036
  400590:	afbf0024 	sw	ra,36(sp)
  400594:	afbc0010 	sw	gp,16(sp)
  400598:	8e110010 	lw	s1,16(s0)
  40059c:	12200008 	beqz	s1,4005c0 <fini+0x4c>
  4005a0:	3c050048 	lui	a1,0x48
  4005a4:	3c190042 	lui	t9,0x42
  4005a8:	24a5af14 	addiu	a1,a1,-20716
  4005ac:	27399670 	addiu	t9,t9,-27024
  4005b0:	0411642f 	bal	419670 <strcmp>
  4005b4:	02202025 	move	a0,s1
  4005b8:	14400006 	bnez	v0,4005d4 <fini+0x60>
  4005bc:	8fbc0010 	lw	gp,16(sp)
  4005c0:	8fbf0024 	lw	ra,36(sp)
  4005c4:	8fb10020 	lw	s1,32(sp)
  4005c8:	8fb0001c 	lw	s0,28(sp)
  4005cc:	03e00008 	jr	ra
  4005d0:	27bd0028 	addiu	sp,sp,40
  4005d4:	8f99804c 	lw	t9,-32692(gp)
  4005d8:	04115da6 	bal	417c74 <__free>
  4005dc:	02202025 	move	a0,s1
  4005e0:	1000fff7 	b	4005c0 <fini+0x4c>
  4005e4:	ae000010 	sw	zero,16(s0)
	...

004005f0 <__start>:
  4005f0:	03e00025 	move	zero,ra
  4005f4:	04110001 	bal	4005fc <__start+0xc>
  4005f8:	00000000 	nop
  4005fc:	3c1c004a 	lui	gp,0x4a
  400600:	279ccae0 	addiu	gp,gp,-13600
  400604:	0000f825 	move	ra,zero
  400608:	8f848018 	lw	a0,-32744(gp)
  40060c:	8fa50000 	lw	a1,0(sp)
  400610:	27a60004 	addiu	a2,sp,4
  400614:	2401fff8 	li	at,-8
  400618:	03a1e824 	and	sp,sp,at
  40061c:	27bdffe0 	addiu	sp,sp,-32
  400620:	8f87801c 	lw	a3,-32740(gp)
  400624:	8f888020 	lw	t0,-32736(gp)
  400628:	afa80010 	sw	t0,16(sp)
  40062c:	afa20014 	sw	v0,20(sp)
  400630:	afbd0018 	sw	sp,24(sp)
  400634:	8f998024 	lw	t9,-32732(gp)
  400638:	0320f809 	jalr	t9
  40063c:	00000000 	nop

00400640 <hlt>:
  400640:	1000ffff 	b	400640 <hlt>
  400644:	00000000 	nop
	...

00400650 <deregister_tm_clones>:
  400650:	3c040049 	lui	a0,0x49
  400654:	3c020049 	lui	v0,0x49
  400658:	248447d0 	addiu	a0,a0,18384
  40065c:	244247d0 	addiu	v0,v0,18384
  400660:	10440007 	beq	v0,a0,400680 <deregister_tm_clones+0x30>
  400664:	3c1c004a 	lui	gp,0x4a
  400668:	279ccae0 	addiu	gp,gp,-13600
  40066c:	8f99832c 	lw	t9,-31956(gp)
  400670:	13200003 	beqz	t9,400680 <deregister_tm_clones+0x30>
  400674:	00000000 	nop
  400678:	03200008 	jr	t9
  40067c:	00000000 	nop
  400680:	03e00008 	jr	ra
  400684:	00000000 	nop

00400688 <register_tm_clones>:
  400688:	3c040049 	lui	a0,0x49
  40068c:	3c020049 	lui	v0,0x49
  400690:	248447d0 	addiu	a0,a0,18384
  400694:	244547d0 	addiu	a1,v0,18384
  400698:	00a42823 	subu	a1,a1,a0
  40069c:	00051083 	sra	v0,a1,0x2
  4006a0:	00052fc2 	srl	a1,a1,0x1f
  4006a4:	00a22821 	addu	a1,a1,v0
  4006a8:	00052843 	sra	a1,a1,0x1
  4006ac:	10a00007 	beqz	a1,4006cc <register_tm_clones+0x44>
  4006b0:	3c1c004a 	lui	gp,0x4a
  4006b4:	279ccae0 	addiu	gp,gp,-13600
  4006b8:	8f998340 	lw	t9,-31936(gp)
  4006bc:	13200003 	beqz	t9,4006cc <register_tm_clones+0x44>
  4006c0:	00000000 	nop
  4006c4:	03200008 	jr	t9
  4006c8:	00000000 	nop
  4006cc:	03e00008 	jr	ra
  4006d0:	00000000 	nop

004006d4 <__do_global_dtors_aux>:
  4006d4:	27bdffd0 	addiu	sp,sp,-48
  4006d8:	3c1c004a 	lui	gp,0x4a
  4006dc:	afb30028 	sw	s3,40(sp)
  4006e0:	3c130049 	lui	s3,0x49
  4006e4:	279ccae0 	addiu	gp,gp,-13600
  4006e8:	afbf002c 	sw	ra,44(sp)
  4006ec:	afb20024 	sw	s2,36(sp)
  4006f0:	afb10020 	sw	s1,32(sp)
  4006f4:	afb0001c 	sw	s0,28(sp)
  4006f8:	afbc0010 	sw	gp,16(sp)
  4006fc:	92624ed0 	lbu	v0,20176(s3)
  400700:	14400023 	bnez	v0,400790 <__do_global_dtors_aux+0xbc>
  400704:	3c110049 	lui	s1,0x49
  400708:	3c020049 	lui	v0,0x49
  40070c:	263110c0 	addiu	s1,s1,4288
  400710:	244210bc 	addiu	v0,v0,4284
  400714:	3c100049 	lui	s0,0x49
  400718:	02228823 	subu	s1,s1,v0
  40071c:	3c020049 	lui	v0,0x49
  400720:	00118883 	sra	s1,s1,0x2
  400724:	245210bc 	addiu	s2,v0,4284
  400728:	8e024ed4 	lw	v0,20180(s0)
  40072c:	2631ffff 	addiu	s1,s1,-1
  400730:	0051182b 	sltu	v1,v0,s1
  400734:	1060000b 	beqz	v1,400764 <__do_global_dtors_aux+0x90>
  400738:	24420001 	addiu	v0,v0,1
  40073c:	00021880 	sll	v1,v0,0x2
  400740:	ae024ed4 	sw	v0,20180(s0)
  400744:	02431021 	addu	v0,s2,v1
  400748:	8c590000 	lw	t9,0(v0)
  40074c:	0320f809 	jalr	t9
  400750:	00000000 	nop
  400754:	8e024ed4 	lw	v0,20180(s0)
  400758:	0051182b 	sltu	v1,v0,s1
  40075c:	1460fff7 	bnez	v1,40073c <__do_global_dtors_aux+0x68>
  400760:	24420001 	addiu	v0,v0,1
  400764:	0c100194 	jal	400650 <deregister_tm_clones>
  400768:	00000000 	nop
  40076c:	8fbc0010 	lw	gp,16(sp)
  400770:	8f828028 	lw	v0,-32728(gp)
  400774:	10400004 	beqz	v0,400788 <__do_global_dtors_aux+0xb4>
  400778:	8f998028 	lw	t9,-32728(gp)
  40077c:	3c040048 	lui	a0,0x48
  400780:	0320f809 	jalr	t9
  400784:	2484e460 	addiu	a0,a0,-7072
  400788:	24020001 	li	v0,1
  40078c:	a2624ed0 	sb	v0,20176(s3)
  400790:	8fbf002c 	lw	ra,44(sp)
  400794:	8fb30028 	lw	s3,40(sp)
  400798:	8fb20024 	lw	s2,36(sp)
  40079c:	8fb10020 	lw	s1,32(sp)
  4007a0:	8fb0001c 	lw	s0,28(sp)
  4007a4:	03e00008 	jr	ra
  4007a8:	27bd0030 	addiu	sp,sp,48

004007ac <frame_dummy>:
  4007ac:	3c1c004a 	lui	gp,0x4a
  4007b0:	27bdffe0 	addiu	sp,sp,-32
  4007b4:	279ccae0 	addiu	gp,gp,-13600
  4007b8:	afbf001c 	sw	ra,28(sp)
  4007bc:	8f82802c 	lw	v0,-32724(gp)
  4007c0:	10400008 	beqz	v0,4007e4 <frame_dummy+0x38>
  4007c4:	afbc0010 	sw	gp,16(sp)
  4007c8:	3c050049 	lui	a1,0x49
  4007cc:	8f99802c 	lw	t9,-32724(gp)
  4007d0:	3c040048 	lui	a0,0x48
  4007d4:	24a54ed8 	addiu	a1,a1,20184
  4007d8:	0320f809 	jalr	t9
  4007dc:	2484e460 	addiu	a0,a0,-7072
  4007e0:	8fbc0010 	lw	gp,16(sp)
  4007e4:	8fbf001c 	lw	ra,28(sp)
  4007e8:	081001a2 	j	400688 <register_tm_clones>
  4007ec:	27bd0020 	addiu	sp,sp,32

004007f0 <main>:
  4007f0:	27bdffd0 	addiu	sp,sp,-48
  4007f4:	afbf002c 	sw	ra,44(sp)
  4007f8:	afbe0028 	sw	s8,40(sp)
  4007fc:	03a0f025 	move	s8,sp
  400800:	3c1c004a 	lui	gp,0x4a
  400804:	279ccae0 	addiu	gp,gp,-13600
  400808:	afbc0010 	sw	gp,16(sp)
  40080c:	3c020046 	lui	v0,0x46
  400810:	8c457510 	lw	a1,29968(v0)
  400814:	24437510 	addiu	v1,v0,29968
  400818:	8c640004 	lw	a0,4(v1)
  40081c:	24437510 	addiu	v1,v0,29968
  400820:	8c630008 	lw	v1,8(v1)
  400824:	afc50018 	sw	a1,24(s8)
  400828:	afc4001c 	sw	a0,28(s8)
  40082c:	afc30020 	sw	v1,32(s8)
  400830:	24427510 	addiu	v0,v0,29968
  400834:	9042000c 	lbu	v0,12(v0)
  400838:	a3c20024 	sb	v0,36(s8)
  40083c:	2407000d 	li	a3,13
  400840:	27c20018 	addiu	v0,s8,24
  400844:	00403025 	move	a2,v0
  400848:	24050001 	li	a1,1
  40084c:	24040fa4 	li	a0,4004
  400850:	8f82805c 	lw	v0,-32676(gp)
  400854:	0040c825 	move	t9,v0
  400858:	0411748c 	bal	41da8c <syscall>
  40085c:	00000000 	nop
  400860:	8fdc0010 	lw	gp,16(s8)
  400864:	24050001 	li	a1,1
  400868:	24040fa1 	li	a0,4001
  40086c:	8f82805c 	lw	v0,-32676(gp)
  400870:	0040c825 	move	t9,v0
  400874:	04117485 	bal	41da8c <syscall>
  400878:	00000000 	nop
  40087c:	8fdc0010 	lw	gp,16(s8)
  400880:	00001025 	move	v0,zero
  400884:	03c0e825 	move	sp,s8
  400888:	8fbf002c 	lw	ra,44(sp)
  40088c:	8fbe0028 	lw	s8,40(sp)
  400890:	27bd0030 	addiu	sp,sp,48
  400894:	03e00008 	jr	ra
  400898:	00000000 	nop
  40089c:	00000000 	nop

004008a0 <__libc_start_main>:
  4008a0:	3c1c004a 	lui	gp,0x4a
  4008a4:	27bdff60 	addiu	sp,sp,-160
  4008a8:	279ccae0 	addiu	gp,gp,-13600
  4008ac:	afb00098 	sw	s0,152(sp)
  4008b0:	00e08025 	move	s0,a3
  4008b4:	afbf009c 	sw	ra,156(sp)
  4008b8:	afbc0010 	sw	gp,16(sp)
  4008bc:	afa400a0 	sw	a0,160(sp)
  4008c0:	afa500a4 	sw	a1,164(sp)
  4008c4:	8f82830c 	lw	v0,-31988(gp)
  4008c8:	10400081 	beqz	v0,400ad0 <__libc_start_main+0x230>
  4008cc:	afa600a8 	sw	a2,168(sp)
  4008d0:	8c420000 	lw	v0,0(v0)
  4008d4:	2c420001 	sltiu	v0,v0,1
  4008d8:	8fa300a4 	lw	v1,164(sp)
  4008dc:	24640001 	addiu	a0,v1,1
  4008e0:	8fa300a8 	lw	v1,168(sp)
  4008e4:	00042080 	sll	a0,a0,0x2
  4008e8:	00642021 	addu	a0,v1,a0
  4008ec:	3c030049 	lui	v1,0x49
  4008f0:	ac624520 	sw	v0,17696(v1)
  4008f4:	8f828060 	lw	v0,-32672(gp)
  4008f8:	8fa300b8 	lw	v1,184(sp)
  4008fc:	ac430000 	sw	v1,0(v0)
  400900:	8f828040 	lw	v0,-32704(gp)
  400904:	ac440000 	sw	a0,0(v0)
  400908:	8c820000 	lw	v0,0(a0)
  40090c:	1440fffe 	bnez	v0,400908 <__libc_start_main+0x68>
  400910:	24840004 	addiu	a0,a0,4
  400914:	3c020042 	lui	v0,0x42
  400918:	24590890 	addiu	t9,v0,2192
  40091c:	04117fdc 	bal	420890 <_dl_aux_init>
  400920:	00000000 	nop
  400924:	8fbc0010 	lw	gp,16(sp)
  400928:	8f828064 	lw	v0,-32668(gp)
  40092c:	8c430000 	lw	v1,0(v0)
  400930:	10600069 	beqz	v1,400ad8 <__libc_start_main+0x238>
  400934:	8f838030 	lw	v1,-32720(gp)
  400938:	8f998068 	lw	t9,-32664(gp)
  40093c:	0320f809 	jalr	t9
  400940:	00000000 	nop
  400944:	8fbc0010 	lw	gp,16(sp)
  400948:	8f828040 	lw	v0,-32704(gp)
  40094c:	8f99806c 	lw	t9,-32660(gp)
  400950:	04117e0a 	bal	42017c <__tunables_init>
  400954:	8c440000 	lw	a0,0(v0)
  400958:	8fbc0010 	lw	gp,16(sp)
  40095c:	8f998070 	lw	t9,-32656(gp)
  400960:	041100fb 	bal	400d50 <__libc_setup_tls>
  400964:	00000000 	nop
  400968:	3c020049 	lui	v0,0x49
  40096c:	8fbc0010 	lw	gp,16(sp)
  400970:	8c433628 	lw	v1,13864(v0)
  400974:	3c020049 	lui	v0,0x49
  400978:	8c444520 	lw	a0,17696(v0)
  40097c:	88620000 	lwl	v0,0(v1)
  400980:	98620003 	lwr	v0,3(v1)
  400984:	3c030049 	lui	v1,0x49
  400988:	7c42b800 	ext	v0,v0,0x0,0x18
  40098c:	10800067 	beqz	a0,400b2c <__libc_start_main+0x28c>
  400990:	ac6230d8 	sw	v0,12504(v1)
  400994:	8f82833c 	lw	v0,-31940(gp)
  400998:	10400004 	beqz	v0,4009ac <__libc_start_main+0x10c>
  40099c:	8f99833c 	lw	t9,-31940(gp)
  4009a0:	0320f809 	jalr	t9
  4009a4:	00000000 	nop
  4009a8:	8fbc0010 	lw	gp,16(sp)
  4009ac:	3c020049 	lui	v0,0x49
  4009b0:	8c433628 	lw	v1,13864(v0)
  4009b4:	88620004 	lwl	v0,4(v1)
  4009b8:	98620007 	lwr	v0,7(v1)
  4009bc:	3c030049 	lui	v1,0x49
  4009c0:	afa20018 	sw	v0,24(sp)
  4009c4:	ac6230d4 	sw	v0,12500(v1)
  4009c8:	8fa200b4 	lw	v0,180(sp)
  4009cc:	10400007 	beqz	v0,4009ec <__libc_start_main+0x14c>
  4009d0:	3c190040 	lui	t9,0x40
  4009d4:	8fa400b4 	lw	a0,180(sp)
  4009d8:	00003025 	move	a2,zero
  4009dc:	273975e8 	addiu	t9,t9,30184
  4009e0:	04111b01 	bal	4075e8 <__cxa_atexit>
  4009e4:	00002825 	move	a1,zero
  4009e8:	8fbc0010 	lw	gp,16(sp)
  4009ec:	8f828040 	lw	v0,-32704(gp)
  4009f0:	8f998074 	lw	t9,-32652(gp)
  4009f4:	8fa500a8 	lw	a1,168(sp)
  4009f8:	8fa400a4 	lw	a0,164(sp)
  4009fc:	0320f809 	jalr	t9
  400a00:	8c460000 	lw	a2,0(v0)
  400a04:	8fa200b0 	lw	v0,176(sp)
  400a08:	10400008 	beqz	v0,400a2c <__libc_start_main+0x18c>
  400a0c:	8fbc0010 	lw	gp,16(sp)
  400a10:	3c190040 	lui	t9,0x40
  400a14:	8fa400b0 	lw	a0,176(sp)
  400a18:	00003025 	move	a2,zero
  400a1c:	273975e8 	addiu	t9,t9,30184
  400a20:	04111af1 	bal	4075e8 <__cxa_atexit>
  400a24:	00002825 	move	a1,zero
  400a28:	8fbc0010 	lw	gp,16(sp)
  400a2c:	8f828078 	lw	v0,-32648(gp)
  400a30:	8c420000 	lw	v0,0(v0)
  400a34:	14400065 	bnez	v0,400bcc <__libc_start_main+0x32c>
  400a38:	3c190040 	lui	t9,0x40
  400a3c:	12000006 	beqz	s0,400a58 <__libc_start_main+0x1b8>
  400a40:	8f828040 	lw	v0,-32704(gp)
  400a44:	0200c825 	move	t9,s0
  400a48:	8fa500a8 	lw	a1,168(sp)
  400a4c:	8fa400a4 	lw	a0,164(sp)
  400a50:	0320f809 	jalr	t9
  400a54:	8c460000 	lw	a2,0(v0)
  400a58:	3c190042 	lui	t9,0x42
  400a5c:	00002825 	move	a1,zero
  400a60:	2739f528 	addiu	t9,t9,-2776
  400a64:	04117ab0 	bal	41f528 <_dl_debug_initialize>
  400a68:	00002025 	move	a0,zero
  400a6c:	3c190040 	lui	t9,0x40
  400a70:	273965b0 	addiu	t9,t9,26032
  400a74:	041116ce 	bal	4065b0 <_setjmp>
  400a78:	27a40018 	addiu	a0,sp,24
  400a7c:	14400041 	bnez	v0,400b84 <__libc_start_main+0x2e4>
  400a80:	8fbc0010 	lw	gp,16(sp)
  400a84:	7c03e83b 	rdhwr	v1,$29
  400a88:	8f868040 	lw	a2,-32704(gp)
  400a8c:	00601025 	move	v0,v1
  400a90:	8c678bf0 	lw	a3,-29712(v1)
  400a94:	8c638bec 	lw	v1,-29716(v1)
  400a98:	8fa400a4 	lw	a0,164(sp)
  400a9c:	8cc60000 	lw	a2,0(a2)
  400aa0:	8fa500a8 	lw	a1,168(sp)
  400aa4:	8fb900a0 	lw	t9,160(sp)
  400aa8:	afa3008c 	sw	v1,140(sp)
  400aac:	27a30018 	addiu	v1,sp,24
  400ab0:	afa70088 	sw	a3,136(sp)
  400ab4:	0320f809 	jalr	t9
  400ab8:	ac438bf0 	sw	v1,-29712(v0)
  400abc:	00402025 	move	a0,v0
  400ac0:	3c190040 	lui	t9,0x40
  400ac4:	27397330 	addiu	t9,t9,29488
  400ac8:	04111a19 	bal	407330 <exit>
  400acc:	00000000 	nop
  400ad0:	1000ff81 	b	4008d8 <__libc_start_main+0x38>
  400ad4:	00001025 	move	v0,zero
  400ad8:	1060ff97 	beqz	v1,400938 <__libc_start_main+0x98>
  400adc:	24050020 	li	a1,32
  400ae0:	9464002a 	lhu	a0,42(v1)
  400ae4:	1085000a 	beq	a0,a1,400b10 <__libc_start_main+0x270>
  400ae8:	3c070046 	lui	a3,0x46
  400aec:	3c050046 	lui	a1,0x46
  400af0:	3c040046 	lui	a0,0x46
  400af4:	3c190040 	lui	t9,0x40
  400af8:	24e775a0 	addiu	a3,a3,30112
  400afc:	240600b4 	li	a2,180
  400b00:	24a57520 	addiu	a1,a1,29984
  400b04:	27391374 	addiu	t9,t9,4980
  400b08:	0411021a 	bal	401374 <__assert_fail>
  400b0c:	24847530 	addiu	a0,a0,30000
  400b10:	8c64001c 	lw	a0,28(v1)
  400b14:	9465002c 	lhu	a1,44(v1)
  400b18:	00641821 	addu	v1,v1,a0
  400b1c:	8f84807c 	lw	a0,-32644(gp)
  400b20:	ac430000 	sw	v1,0(v0)
  400b24:	1000ff84 	b	400938 <__libc_start_main+0x98>
  400b28:	ac850000 	sw	a1,0(a0)
  400b2c:	3c190042 	lui	t9,0x42
  400b30:	27391a30 	addiu	t9,t9,6704
  400b34:	0320f809 	jalr	t9
  400b38:	00000000 	nop
  400b3c:	04400028 	bltz	v0,400be0 <__libc_start_main+0x340>
  400b40:	8fbc0010 	lw	gp,16(sp)
  400b44:	8f838080 	lw	v1,-32640(gp)
  400b48:	8c630000 	lw	v1,0(v1)
  400b4c:	14600029 	bnez	v1,400bf4 <__libc_start_main+0x354>
  400b50:	0043182b 	sltu	v1,v0,v1
  400b54:	8f838080 	lw	v1,-32640(gp)
  400b58:	ac620000 	sw	v0,0(v1)
  400b5c:	3c030003 	lui	v1,0x3
  400b60:	24630200 	addiu	v1,v1,512
  400b64:	0043102a 	slt	v0,v0,v1
  400b68:	1040ff8b 	beqz	v0,400998 <__libc_start_main+0xf8>
  400b6c:	8f82833c 	lw	v0,-31940(gp)
  400b70:	3c040046 	lui	a0,0x46
  400b74:	3c190041 	lui	t9,0x41
  400b78:	2739b598 	addiu	t9,t9,-19048
  400b7c:	04112a86 	bal	40b598 <__libc_fatal>
  400b80:	24847560 	addiu	a0,a0,30048
  400b84:	8f998360 	lw	t9,-31904(gp)
  400b88:	0320f809 	jalr	t9
  400b8c:	00000000 	nop
  400b90:	8fbc0010 	lw	gp,16(sp)
  400b94:	8f828314 	lw	v0,-31980(gp)
  400b98:	c0430000 	ll	v1,0(v0)
  400b9c:	2461ffff 	addiu	at,v1,-1
  400ba0:	e0410000 	sc	at,0(v0)
  400ba4:	1020fffc 	beqz	at,400b98 <__libc_start_main+0x2f8>
  400ba8:	00000000 	nop
  400bac:	0000000f 	sync
  400bb0:	24020001 	li	v0,1
  400bb4:	1062ffc2 	beq	v1,v0,400ac0 <__libc_start_main+0x220>
  400bb8:	00002025 	move	a0,zero
  400bbc:	24020fa1 	li	v0,4001
  400bc0:	0000000c 	syscall
  400bc4:	1000fffd 	b	400bbc <__libc_start_main+0x31c>
  400bc8:	00002025 	move	a0,zero
  400bcc:	27390d10 	addiu	t9,t9,3344
  400bd0:	0411004f 	bal	400d10 <__libc_check_standard_fds>
  400bd4:	00000000 	nop
  400bd8:	1000ff98 	b	400a3c <__libc_start_main+0x19c>
  400bdc:	8fbc0010 	lw	gp,16(sp)
  400be0:	3c040046 	lui	a0,0x46
  400be4:	3c190041 	lui	t9,0x41
  400be8:	2739b598 	addiu	t9,t9,-19048
  400bec:	04112a6a 	bal	40b598 <__libc_fatal>
  400bf0:	24847578 	addiu	a0,a0,30072
  400bf4:	1060ffd9 	beqz	v1,400b5c <__libc_start_main+0x2bc>
  400bf8:	8f838080 	lw	v1,-32640(gp)
  400bfc:	1000ffd7 	b	400b5c <__libc_start_main+0x2bc>
  400c00:	ac620000 	sw	v0,0(v1)
	...

00400c10 <check_one_fd>:
  400c10:	27bdff38 	addiu	sp,sp,-200
  400c14:	3c1c004a 	lui	gp,0x4a
  400c18:	3c190042 	lui	t9,0x42
  400c1c:	279ccae0 	addiu	gp,gp,-13600
  400c20:	afb000b8 	sw	s0,184(sp)
  400c24:	2739d4c0 	addiu	t9,t9,-11072
  400c28:	afb100bc 	sw	s1,188(sp)
  400c2c:	00a08025 	move	s0,a1
  400c30:	afbc0010 	sw	gp,16(sp)
  400c34:	24050001 	li	a1,1
  400c38:	afbf00c4 	sw	ra,196(sp)
  400c3c:	afb200c0 	sw	s2,192(sp)
  400c40:	0411721f 	bal	41d4c0 <__fcntl64_nocancel>
  400c44:	00808825 	move	s1,a0
  400c48:	2403ffff 	li	v1,-1
  400c4c:	10430007 	beq	v0,v1,400c6c <check_one_fd+0x5c>
  400c50:	8fbc0010 	lw	gp,16(sp)
  400c54:	8fbf00c4 	lw	ra,196(sp)
  400c58:	8fb200c0 	lw	s2,192(sp)
  400c5c:	8fb100bc 	lw	s1,188(sp)
  400c60:	8fb000b8 	lw	s0,184(sp)
  400c64:	03e00008 	jr	ra
  400c68:	27bd00c8 	addiu	sp,sp,200
  400c6c:	8f8283d0 	lw	v0,-31792(gp)
  400c70:	7c03e83b 	rdhwr	v1,$29
  400c74:	00602025 	move	a0,v1
  400c78:	24030009 	li	v1,9
  400c7c:	00441021 	addu	v0,v0,a0
  400c80:	8c420000 	lw	v0,0(v0)
  400c84:	1443fff4 	bne	v0,v1,400c58 <check_one_fd+0x48>
  400c88:	8fbf00c4 	lw	ra,196(sp)
  400c8c:	3c020002 	lui	v0,0x2
  400c90:	1602001c 	bne	s0,v0,400d04 <check_one_fd+0xf4>
  400c94:	3c040046 	lui	a0,0x46
  400c98:	3c040046 	lui	a0,0x46
  400c9c:	24120103 	li	s2,259
  400ca0:	248475c0 	addiu	a0,a0,30144
  400ca4:	3c190042 	lui	t9,0x42
  400ca8:	00003025 	move	a2,zero
  400cac:	2739d670 	addiu	t9,t9,-10640
  400cb0:	0411726f 	bal	41d670 <__open_nocancel>
  400cb4:	02002825 	move	a1,s0
  400cb8:	1622000e 	bne	s1,v0,400cf4 <check_one_fd+0xe4>
  400cbc:	3c190042 	lui	t9,0x42
  400cc0:	27a60018 	addiu	a2,sp,24
  400cc4:	24040003 	li	a0,3
  400cc8:	2739c840 	addiu	t9,t9,-14272
  400ccc:	04116edc 	bal	41c840 <___fxstat64>
  400cd0:	02202825 	move	a1,s1
  400cd4:	14400007 	bnez	v0,400cf4 <check_one_fd+0xe4>
  400cd8:	8fa20030 	lw	v0,48(sp)
  400cdc:	24032000 	li	v1,8192
  400ce0:	3042f000 	andi	v0,v0,0xf000
  400ce4:	14430003 	bne	v0,v1,400cf4 <check_one_fd+0xe4>
  400ce8:	8fa20040 	lw	v0,64(sp)
  400cec:	1052ffda 	beq	v0,s2,400c58 <check_one_fd+0x48>
  400cf0:	8fbf00c4 	lw	ra,196(sp)
  400cf4:	00ff000d 	break	0xff
  400cf8:	00ff000d 	break	0xff
  400cfc:	1000fffd 	b	400cf4 <check_one_fd+0xe4>
  400d00:	00000000 	nop
  400d04:	24120107 	li	s2,263
  400d08:	1000ffe6 	b	400ca4 <check_one_fd+0x94>
  400d0c:	248475b4 	addiu	a0,a0,30132

00400d10 <__libc_check_standard_fds>:
  400d10:	3c050002 	lui	a1,0x2
  400d14:	27bdffe0 	addiu	sp,sp,-32
  400d18:	00002025 	move	a0,zero
  400d1c:	afbf001c 	sw	ra,28(sp)
  400d20:	0c100304 	jal	400c10 <check_one_fd>
  400d24:	24a50001 	addiu	a1,a1,1
  400d28:	3c050002 	lui	a1,0x2
  400d2c:	0c100304 	jal	400c10 <check_one_fd>
  400d30:	24040001 	li	a0,1
  400d34:	3c050002 	lui	a1,0x2
  400d38:	8fbf001c 	lw	ra,28(sp)
  400d3c:	24040002 	li	a0,2
  400d40:	08100304 	j	400c10 <check_one_fd>
  400d44:	27bd0020 	addiu	sp,sp,32
	...

00400d50 <__libc_setup_tls>:
  400d50:	3c1c004a 	lui	gp,0x4a
  400d54:	27bdffb0 	addiu	sp,sp,-80
  400d58:	279ccae0 	addiu	gp,gp,-13600
  400d5c:	afb00028 	sw	s0,40(sp)
  400d60:	8f828064 	lw	v0,-32668(gp)
  400d64:	8f838084 	lw	v1,-32636(gp)
  400d68:	afbf004c 	sw	ra,76(sp)
  400d6c:	afbe0048 	sw	s8,72(sp)
  400d70:	afb70044 	sw	s7,68(sp)
  400d74:	afb60040 	sw	s6,64(sp)
  400d78:	afb5003c 	sw	s5,60(sp)
  400d7c:	afb40038 	sw	s4,56(sp)
  400d80:	afb30034 	sw	s3,52(sp)
  400d84:	afb20030 	sw	s2,48(sp)
  400d88:	afb1002c 	sw	s1,44(sp)
  400d8c:	afbc0010 	sw	gp,16(sp)
  400d90:	8c420000 	lw	v0,0(v0)
  400d94:	10400085 	beqz	v0,400fac <__libc_setup_tls+0x25c>
  400d98:	8c700000 	lw	s0,0(v1)
  400d9c:	8f83807c 	lw	v1,-32644(gp)
  400da0:	8c640000 	lw	a0,0(v1)
  400da4:	00042140 	sll	a0,a0,0x5
  400da8:	00442021 	addu	a0,v0,a0
  400dac:	0044182b 	sltu	v1,v0,a0
  400db0:	14600006 	bnez	v1,400dcc <__libc_setup_tls+0x7c>
  400db4:	24050007 	li	a1,7
  400db8:	1000007d 	b	400fb0 <__libc_setup_tls+0x260>
  400dbc:	3c190042 	lui	t9,0x42
  400dc0:	0044182b 	sltu	v1,v0,a0
  400dc4:	1060007a 	beqz	v1,400fb0 <__libc_setup_tls+0x260>
  400dc8:	3c190042 	lui	t9,0x42
  400dcc:	8c430000 	lw	v1,0(v0)
  400dd0:	1465fffb 	bne	v1,a1,400dc0 <__libc_setup_tls+0x70>
  400dd4:	24420020 	addiu	v0,v0,32
  400dd8:	2442ffe0 	addiu	v0,v0,-32
  400ddc:	8c52001c 	lw	s2,28(v0)
  400de0:	24130010 	li	s3,16
  400de4:	3c190042 	lui	t9,0x42
  400de8:	8e150000 	lw	s5,0(s0)
  400dec:	8c430008 	lw	v1,8(v0)
  400df0:	00002025 	move	a0,zero
  400df4:	2e450010 	sltiu	a1,s2,16
  400df8:	8c560014 	lw	s6,20(v0)
  400dfc:	0245980a 	movz	s3,s2,a1
  400e00:	2739f620 	addiu	t9,t9,-2528
  400e04:	24110001 	li	s1,1
  400e08:	8c570010 	lw	s7,16(v0)
  400e0c:	02a3a821 	addu	s5,s5,v1
  400e10:	04117a03 	bal	41f620 <_dl_tls_static_surplus_init>
  400e14:	0252880b 	movn	s1,s2,s2
  400e18:	2667ffff 	addiu	a3,s3,-1
  400e1c:	12400073 	beqz	s2,400fec <__libc_setup_tls+0x29c>
  400e20:	00133023 	negu	a2,s3
  400e24:	2642ffff 	addiu	v0,s2,-1
  400e28:	022001f4 	teq	s1,zero,0x7
  400e2c:	0051001b 	divu	zero,v0,s1
  400e30:	afa20024 	sw	v0,36(sp)
  400e34:	0000a012 	mflo	s4
  400e38:	7291a002 	mul	s4,s4,s1
  400e3c:	afb40020 	sw	s4,32(sp)
  400e40:	3c1e0049 	lui	s8,0x49
  400e44:	afa7001c 	sw	a3,28(sp)
  400e48:	3c190042 	lui	t9,0x42
  400e4c:	afa60018 	sw	a2,24(sp)
  400e50:	8fc44ef8 	lw	a0,20216(s8)
  400e54:	2739d8a0 	addiu	t9,t9,-10080
  400e58:	24840490 	addiu	a0,a0,1168
  400e5c:	00942021 	addu	a0,a0,s4
  400e60:	00962021 	addu	a0,a0,s6
  400e64:	0411728e 	bal	41d8a0 <__sbrk>
  400e68:	00932021 	addu	a0,a0,s3
  400e6c:	3c050049 	lui	a1,0x49
  400e70:	8fa7001c 	lw	a3,28(sp)
  400e74:	24430490 	addiu	v1,v0,1168
  400e78:	8fbc0010 	lw	gp,16(sp)
  400e7c:	8fa60018 	lw	a2,24(sp)
  400e80:	8fa20020 	lw	v0,32(sp)
  400e84:	00671821 	addu	v1,v1,a3
  400e88:	00661824 	and	v1,v1,a2
  400e8c:	8f998088 	lw	t9,-32632(gp)
  400e90:	ae02032c 	sw	v0,812(s0)
  400e94:	24a24f18 	addiu	v0,a1,20248
  400e98:	00742021 	addu	a0,v1,s4
  400e9c:	afa30018 	sw	v1,24(sp)
  400ea0:	2406003e 	li	a2,62
  400ea4:	ac440010 	sw	a0,16(v0)
  400ea8:	aca64f18 	sw	a2,20248(a1)
  400eac:	02e03025 	move	a2,s7
  400eb0:	02a02825 	move	a1,s5
  400eb4:	0411677a 	bal	41aca0 <memcpy>
  400eb8:	ac400014 	sw	zero,20(v0)
  400ebc:	3c020049 	lui	v0,0x49
  400ec0:	8fa30018 	lw	v1,24(sp)
  400ec4:	24424f20 	addiu	v0,v0,20256
  400ec8:	24647000 	addiu	a0,v1,28672
  400ecc:	ac62fff8 	sw	v0,-8(v1)
  400ed0:	240210bb 	li	v0,4283
  400ed4:	0000000c 	syscall
  400ed8:	10e00006 	beqz	a3,400ef4 <__libc_setup_tls+0x1a4>
  400edc:	8fa20024 	lw	v0,36(sp)
  400ee0:	3c040046 	lui	a0,0x46
  400ee4:	3c190041 	lui	t9,0x41
  400ee8:	2739b598 	addiu	t9,t9,-19048
  400eec:	041129aa 	bal	40b598 <__libc_fatal>
  400ef0:	248475cc 	addiu	a0,a0,30156
  400ef4:	3c050049 	lui	a1,0x49
  400ef8:	3c060049 	lui	a2,0x49
  400efc:	8fbf004c 	lw	ra,76(sp)
  400f00:	ae120324 	sw	s2,804(s0)
  400f04:	00561821 	addu	v1,v0,s6
  400f08:	8fc24ef8 	lw	v0,20216(s8)
  400f0c:	8fb20030 	lw	s2,48(sp)
  400f10:	022001f4 	teq	s1,zero,0x7
  400f14:	0071001b 	divu	zero,v1,s1
  400f18:	8fbe0048 	lw	s8,72(sp)
  400f1c:	24a35118 	addiu	v1,a1,20760
  400f20:	ae160320 	sw	s6,800(s0)
  400f24:	2442000f 	addiu	v0,v0,15
  400f28:	ae150318 	sw	s5,792(s0)
  400f2c:	acc34f0c 	sw	v1,20236(a2)
  400f30:	3c060049 	lui	a2,0x49
  400f34:	ac700014 	sw	s0,20(v1)
  400f38:	24030001 	li	v1,1
  400f3c:	ae17031c 	sw	s7,796(s0)
  400f40:	acd34efc 	sw	s3,20220(a2)
  400f44:	24060040 	li	a2,64
  400f48:	ae030330 	sw	v1,816(s0)
  400f4c:	aca65118 	sw	a2,20760(a1)
  400f50:	3c050049 	lui	a1,0x49
  400f54:	8fb70044 	lw	s7,68(sp)
  400f58:	8fb60040 	lw	s6,64(sp)
  400f5c:	aca34f14 	sw	v1,20244(a1)
  400f60:	3c050049 	lui	a1,0x49
  400f64:	8fb5003c 	lw	s5,60(sp)
  400f68:	8fb30034 	lw	s3,52(sp)
  400f6c:	aca34f08 	sw	v1,20232(a1)
  400f70:	8fb00028 	lw	s0,40(sp)
  400f74:	00002012 	mflo	a0
  400f78:	70911802 	mul	v1,a0,s1
  400f7c:	00748821 	addu	s1,v1,s4
  400f80:	8fb40038 	lw	s4,56(sp)
  400f84:	3c030049 	lui	v1,0x49
  400f88:	00511021 	addu	v0,v0,s1
  400f8c:	ac714f00 	sw	s1,20224(v1)
  400f90:	2403fff0 	li	v1,-16
  400f94:	8fb1002c 	lw	s1,44(sp)
  400f98:	27bd0050 	addiu	sp,sp,80
  400f9c:	00431024 	and	v0,v0,v1
  400fa0:	3c030049 	lui	v1,0x49
  400fa4:	03e00008 	jr	ra
  400fa8:	ac624f04 	sw	v0,20228(v1)
  400fac:	3c190042 	lui	t9,0x42
  400fb0:	00002025 	move	a0,zero
  400fb4:	2739f620 	addiu	t9,t9,-2528
  400fb8:	04117999 	bal	41f620 <_dl_tls_static_surplus_init>
  400fbc:	24110001 	li	s1,1
  400fc0:	0000a025 	move	s4,zero
  400fc4:	2406fff0 	li	a2,-16
  400fc8:	afa00020 	sw	zero,32(sp)
  400fcc:	2407000f 	li	a3,15
  400fd0:	afa00024 	sw	zero,36(sp)
  400fd4:	24130010 	li	s3,16
  400fd8:	00009025 	move	s2,zero
  400fdc:	0000a825 	move	s5,zero
  400fe0:	0000b825 	move	s7,zero
  400fe4:	1000ff96 	b	400e40 <__libc_setup_tls+0xf0>
  400fe8:	0000b025 	move	s6,zero
  400fec:	0000a025 	move	s4,zero
  400ff0:	afa00024 	sw	zero,36(sp)
  400ff4:	1000ff92 	b	400e40 <__libc_setup_tls+0xf0>
  400ff8:	afa00020 	sw	zero,32(sp)

00400ffc <__tls_get_addr>:
  400ffc:	7c03e83b 	rdhwr	v1,$29
  401000:	8c638ff8 	lw	v1,-28680(v1)
  401004:	8c820004 	lw	v0,4(a0)
  401008:	34048000 	li	a0,0x8000
  40100c:	8c630008 	lw	v1,8(v1)
  401010:	00441021 	addu	v0,v0,a0
  401014:	03e00008 	jr	ra
  401018:	00621021 	addu	v0,v1,v0
  40101c:	00000000 	nop

00401020 <__libc_csu_init>:
  401020:	27bdffc8 	addiu	sp,sp,-56
  401024:	3c1c004a 	lui	gp,0x4a
  401028:	afb50030 	sw	s5,48(sp)
  40102c:	3c150049 	lui	s5,0x49
  401030:	afb0001c 	sw	s0,28(sp)
  401034:	3c100049 	lui	s0,0x49
  401038:	26b510b0 	addiu	s5,s5,4272
  40103c:	afb4002c 	sw	s4,44(sp)
  401040:	261010b0 	addiu	s0,s0,4272
  401044:	afb30028 	sw	s3,40(sp)
  401048:	279ccae0 	addiu	gp,gp,-13600
  40104c:	afb20024 	sw	s2,36(sp)
  401050:	02b0a823 	subu	s5,s5,s0
  401054:	afbf0034 	sw	ra,52(sp)
  401058:	afb10020 	sw	s1,32(sp)
  40105c:	00809025 	move	s2,a0
  401060:	0015a883 	sra	s5,s5,0x2
  401064:	afbc0010 	sw	gp,16(sp)
  401068:	00a09825 	move	s3,a1
  40106c:	12a0000b 	beqz	s5,40109c <__libc_csu_init+0x7c>
  401070:	00c0a025 	move	s4,a2
  401074:	00008825 	move	s1,zero
  401078:	8e190000 	lw	t9,0(s0)
  40107c:	26310001 	addiu	s1,s1,1
  401080:	02803025 	move	a2,s4
  401084:	02602825 	move	a1,s3
  401088:	0320f809 	jalr	t9
  40108c:	02402025 	move	a0,s2
  401090:	26100004 	addiu	s0,s0,4
  401094:	16b1fff8 	bne	s5,s1,401078 <__libc_csu_init+0x58>
  401098:	8fbc0010 	lw	gp,16(sp)
  40109c:	3c100049 	lui	s0,0x49
  4010a0:	8f99808c 	lw	t9,-32628(gp)
  4010a4:	3c150049 	lui	s5,0x49
  4010a8:	261010b0 	addiu	s0,s0,4272
  4010ac:	0411fc69 	bal	400254 <_init>
  4010b0:	26b510b0 	addiu	s5,s5,4272
  4010b4:	02b0a823 	subu	s5,s5,s0
  4010b8:	0015a883 	sra	s5,s5,0x2
  4010bc:	12a00009 	beqz	s5,4010e4 <__libc_csu_init+0xc4>
  4010c0:	00008825 	move	s1,zero
  4010c4:	8e190000 	lw	t9,0(s0)
  4010c8:	26310001 	addiu	s1,s1,1
  4010cc:	02803025 	move	a2,s4
  4010d0:	02602825 	move	a1,s3
  4010d4:	0320f809 	jalr	t9
  4010d8:	02402025 	move	a0,s2
  4010dc:	16b1fff9 	bne	s5,s1,4010c4 <__libc_csu_init+0xa4>
  4010e0:	26100004 	addiu	s0,s0,4
  4010e4:	8fbf0034 	lw	ra,52(sp)
  4010e8:	8fb50030 	lw	s5,48(sp)
  4010ec:	8fb4002c 	lw	s4,44(sp)
  4010f0:	8fb30028 	lw	s3,40(sp)
  4010f4:	8fb20024 	lw	s2,36(sp)
  4010f8:	8fb10020 	lw	s1,32(sp)
  4010fc:	8fb0001c 	lw	s0,28(sp)
  401100:	03e00008 	jr	ra
  401104:	27bd0038 	addiu	sp,sp,56

00401108 <__libc_csu_fini>:
  401108:	27bdffd8 	addiu	sp,sp,-40
  40110c:	3c020049 	lui	v0,0x49
  401110:	3c1c004a 	lui	gp,0x4a
  401114:	afb0001c 	sw	s0,28(sp)
  401118:	3c100049 	lui	s0,0x49
  40111c:	244210b4 	addiu	v0,v0,4276
  401120:	afb10020 	sw	s1,32(sp)
  401124:	261010b0 	addiu	s0,s0,4272
  401128:	afbf0024 	sw	ra,36(sp)
  40112c:	279ccae0 	addiu	gp,gp,-13600
  401130:	00501023 	subu	v0,v0,s0
  401134:	00028883 	sra	s1,v0,0x2
  401138:	12200009 	beqz	s1,401160 <__libc_csu_fini+0x58>
  40113c:	afbc0010 	sw	gp,16(sp)
  401140:	2442fffc 	addiu	v0,v0,-4
  401144:	02028021 	addu	s0,s0,v0
  401148:	8e190000 	lw	t9,0(s0)
  40114c:	2631ffff 	addiu	s1,s1,-1
  401150:	0320f809 	jalr	t9
  401154:	2610fffc 	addiu	s0,s0,-4
  401158:	1620fffb 	bnez	s1,401148 <__libc_csu_fini+0x40>
  40115c:	8fbc0010 	lw	gp,16(sp)
  401160:	8fbf0024 	lw	ra,36(sp)
  401164:	8fb10020 	lw	s1,32(sp)
  401168:	8fb0001c 	lw	s0,28(sp)
  40116c:	8f998090 	lw	t9,-32624(gp)
  401170:	03200008 	jr	t9
  401174:	27bd0028 	addiu	sp,sp,40
	...

00401180 <__assert_fail_base>:
  401180:	3c1c004a 	lui	gp,0x4a
  401184:	27bdffa8 	addiu	sp,sp,-88
  401188:	279ccae0 	addiu	gp,gp,-13600
  40118c:	afb40050 	sw	s4,80(sp)
  401190:	00a0a025 	move	s4,a1
  401194:	8f838038 	lw	v1,-32712(gp)
  401198:	8f828350 	lw	v0,-31920(gp)
  40119c:	afb3004c 	sw	s3,76(sp)
  4011a0:	00e09825 	move	s3,a3
  4011a4:	afb20048 	sw	s2,72(sp)
  4011a8:	00c09025 	move	s2,a2
  4011ac:	afb10044 	sw	s1,68(sp)
  4011b0:	00808825 	move	s1,a0
  4011b4:	afb00040 	sw	s0,64(sp)
  4011b8:	afbf0054 	sw	ra,84(sp)
  4011bc:	afbc0028 	sw	gp,40(sp)
  4011c0:	8c630000 	lw	v1,0(v1)
  4011c4:	8fb00068 	lw	s0,104(sp)
  4011c8:	afa3003c 	sw	v1,60(sp)
  4011cc:	10400005 	beqz	v0,4011e4 <__assert_fail_base+0x64>
  4011d0:	8f998350 	lw	t9,-31920(gp)
  4011d4:	00002825 	move	a1,zero
  4011d8:	0320f809 	jalr	t9
  4011dc:	24040001 	li	a0,1
  4011e0:	8fbc0028 	lw	gp,40(sp)
  4011e4:	8f828094 	lw	v0,-32620(gp)
  4011e8:	8c460000 	lw	a2,0(v0)
  4011ec:	80c20000 	lb	v0,0(a2)
  4011f0:	14400051 	bnez	v0,401338 <__assert_fail_base+0x1b8>
  4011f4:	3c020046 	lui	v0,0x46
  4011f8:	3c020048 	lui	v0,0x48
  4011fc:	2447a4ec 	addiu	a3,v0,-23316
  401200:	12000058 	beqz	s0,401364 <__assert_fail_base+0x1e4>
  401204:	00000000 	nop
  401208:	3c020046 	lui	v0,0x46
  40120c:	244275dc 	addiu	v0,v0,30172
  401210:	3c190040 	lui	t9,0x40
  401214:	afa2001c 	sw	v0,28(sp)
  401218:	27a20038 	addiu	v0,sp,56
  40121c:	afb40020 	sw	s4,32(sp)
  401220:	27a40034 	addiu	a0,sp,52
  401224:	afb00018 	sw	s0,24(sp)
  401228:	27397e30 	addiu	t9,t9,32304
  40122c:	afa20024 	sw	v0,36(sp)
  401230:	afb30014 	sw	s3,20(sp)
  401234:	02202825 	move	a1,s1
  401238:	04111afd 	bal	407e30 <___asprintf>
  40123c:	afb20010 	sw	s2,16(sp)
  401240:	0440003f 	bltz	v0,401340 <__assert_fail_base+0x1c0>
  401244:	3c050048 	lui	a1,0x48
  401248:	8fa60034 	lw	a2,52(sp)
  40124c:	3c190041 	lui	t9,0x41
  401250:	24a5cf08 	addiu	a1,a1,-12536
  401254:	00002025 	move	a0,zero
  401258:	27398214 	addiu	t9,t9,-32236
  40125c:	04111bed 	bal	408214 <__fxprintf>
  401260:	2411ffff 	li	s1,-1
  401264:	3c190041 	lui	t9,0x41
  401268:	8fbc0028 	lw	gp,40(sp)
  40126c:	27398750 	addiu	t9,t9,-30896
  401270:	8f828098 	lw	v0,-32616(gp)
  401274:	04111d36 	bal	408750 <_IO_fflush>
  401278:	8c440000 	lw	a0,0(v0)
  40127c:	3c190042 	lui	t9,0x42
  401280:	8fbc0028 	lw	gp,40(sp)
  401284:	24070802 	li	a3,2050
  401288:	8fa50038 	lw	a1,56(sp)
  40128c:	24060003 	li	a2,3
  401290:	afa00014 	sw	zero,20(sp)
  401294:	00002025 	move	a0,zero
  401298:	afb10010 	sw	s1,16(sp)
  40129c:	2739dab0 	addiu	t9,t9,-9552
  4012a0:	8f82809c 	lw	v0,-32612(gp)
  4012a4:	8c420000 	lw	v0,0(v0)
  4012a8:	00452821 	addu	a1,v0,a1
  4012ac:	00021023 	negu	v0,v0
  4012b0:	00a22824 	and	a1,a1,v0
  4012b4:	041171fe 	bal	41dab0 <__mmap>
  4012b8:	afa50038 	sw	a1,56(sp)
  4012bc:	8fbc0028 	lw	gp,40(sp)
  4012c0:	10510016 	beq	v0,s1,40131c <__assert_fail_base+0x19c>
  4012c4:	00408025 	move	s0,v0
  4012c8:	24440004 	addiu	a0,v0,4
  4012cc:	8fa20038 	lw	v0,56(sp)
  4012d0:	3c190042 	lui	t9,0x42
  4012d4:	8fa50034 	lw	a1,52(sp)
  4012d8:	273998b0 	addiu	t9,t9,-26448
  4012dc:	04116174 	bal	4198b0 <strcpy>
  4012e0:	ae020000 	sw	v0,0(s0)
  4012e4:	3c020049 	lui	v0,0x49
  4012e8:	8fbc0028 	lw	gp,40(sp)
  4012ec:	c04453e0 	ll	a0,21472(v0)
  4012f0:	02000825 	move	at,s0
  4012f4:	e04153e0 	sc	at,21472(v0)
  4012f8:	1020fffc 	beqz	at,4012ec <__assert_fail_base+0x16c>
  4012fc:	00000000 	nop
  401300:	0000000f 	sync
  401304:	10800005 	beqz	a0,40131c <__assert_fail_base+0x19c>
  401308:	3c190042 	lui	t9,0x42
  40130c:	2739dc3c 	addiu	t9,t9,-9156
  401310:	0411724a 	bal	41dc3c <__munmap>
  401314:	8c850000 	lw	a1,0(a0)
  401318:	8fbc0028 	lw	gp,40(sp)
  40131c:	8f99804c 	lw	t9,-32692(gp)
  401320:	04115a54 	bal	417c74 <__free>
  401324:	8fa40034 	lw	a0,52(sp)
  401328:	3c190040 	lui	t9,0x40
  40132c:	273902d0 	addiu	t9,t9,720
  401330:	0411fbe7 	bal	4002d0 <abort>
  401334:	00000000 	nop
  401338:	1000ffb1 	b	401200 <__assert_fail_base+0x80>
  40133c:	244775dc 	addiu	a3,v0,30172
  401340:	3c050046 	lui	a1,0x46
  401344:	3c190042 	lui	t9,0x42
  401348:	24060012 	li	a2,18
  40134c:	24a5760c 	addiu	a1,a1,30220
  401350:	2739cac0 	addiu	t9,t9,-13632
  401354:	04116dda 	bal	41cac0 <__libc_write>
  401358:	24040002 	li	a0,2
  40135c:	1000fff3 	b	40132c <__assert_fail_base+0x1ac>
  401360:	3c190040 	lui	t9,0x40
  401364:	3c100048 	lui	s0,0x48
  401368:	2610a4ec 	addiu	s0,s0,-23316
  40136c:	1000ffa8 	b	401210 <__assert_fail_base+0x90>
  401370:	02001025 	move	v0,s0

00401374 <__assert_fail>:
  401374:	27bdffc8 	addiu	sp,sp,-56
  401378:	3c190040 	lui	t9,0x40
  40137c:	afb10028 	sw	s1,40(sp)
  401380:	00a08825 	move	s1,a1
  401384:	afb00024 	sw	s0,36(sp)
  401388:	3c050046 	lui	a1,0x46
  40138c:	00808025 	move	s0,a0
  401390:	afb2002c 	sw	s2,44(sp)
  401394:	3c040048 	lui	a0,0x48
  401398:	afb30030 	sw	s3,48(sp)
  40139c:	24a575e0 	addiu	a1,a1,30176
  4013a0:	afbf0034 	sw	ra,52(sp)
  4013a4:	24849144 	addiu	a0,a0,-28348
  4013a8:	00c09025 	move	s2,a2
  4013ac:	273913e0 	addiu	t9,t9,5088
  4013b0:	24060005 	li	a2,5
  4013b4:	0411000a 	bal	4013e0 <__dcgettext>
  4013b8:	00e09825 	move	s3,a3
  4013bc:	02403825 	move	a3,s2
  4013c0:	afb30010 	sw	s3,16(sp)
  4013c4:	02203025 	move	a2,s1
  4013c8:	02002825 	move	a1,s0
  4013cc:	0c100460 	jal	401180 <__assert_fail_base>
  4013d0:	00402025 	move	a0,v0
	...

004013e0 <__dcgettext>:
  4013e0:	27bdffd8 	addiu	sp,sp,-40
  4013e4:	3c190040 	lui	t9,0x40
  4013e8:	00003825 	move	a3,zero
  4013ec:	afa60014 	sw	a2,20(sp)
  4013f0:	27392270 	addiu	t9,t9,8816
  4013f4:	afa00010 	sw	zero,16(sp)
  4013f8:	afbf0024 	sw	ra,36(sp)
  4013fc:	0411039c 	bal	402270 <__dcigettext>
  401400:	00003025 	move	a2,zero
  401404:	8fbf0024 	lw	ra,36(sp)
  401408:	03e00008 	jr	ra
  40140c:	27bd0028 	addiu	sp,sp,40

00401410 <plural_eval>:
  401410:	27bdffd0 	addiu	sp,sp,-48
  401414:	afb0001c 	sw	s0,28(sp)
  401418:	00808025 	move	s0,a0
  40141c:	afb10020 	sw	s1,32(sp)
  401420:	24110002 	li	s1,2
  401424:	afb30028 	sw	s3,40(sp)
  401428:	24130001 	li	s3,1
  40142c:	afb20024 	sw	s2,36(sp)
  401430:	afbf002c 	sw	ra,44(sp)
  401434:	8e020000 	lw	v0,0(s0)
  401438:	10510021 	beq	v0,s1,4014c0 <plural_eval+0xb0>
  40143c:	24120003 	li	s2,3
  401440:	28430003 	slti	v1,v0,3
  401444:	10600010 	beqz	v1,401488 <plural_eval+0x78>
  401448:	00000000 	nop
  40144c:	10400035 	beqz	v0,401524 <plural_eval+0x114>
  401450:	24030001 	li	v1,1
  401454:	14430039 	bne	v0,v1,40153c <plural_eval+0x12c>
  401458:	8fbf002c 	lw	ra,44(sp)
  40145c:	0c100504 	jal	401410 <plural_eval>
  401460:	8e040008 	lw	a0,8(s0)
  401464:	2c510001 	sltiu	s1,v0,1
  401468:	8fbf002c 	lw	ra,44(sp)
  40146c:	02201025 	move	v0,s1
  401470:	8fb30028 	lw	s3,40(sp)
  401474:	8fb20024 	lw	s2,36(sp)
  401478:	8fb10020 	lw	s1,32(sp)
  40147c:	8fb0001c 	lw	s0,28(sp)
  401480:	03e00008 	jr	ra
  401484:	27bd0030 	addiu	sp,sp,48
  401488:	1452002c 	bne	v0,s2,40153c <plural_eval+0x12c>
  40148c:	8fbf002c 	lw	ra,44(sp)
  401490:	8e040008 	lw	a0,8(s0)
  401494:	0c100504 	jal	401410 <plural_eval>
  401498:	afa50034 	sw	a1,52(sp)
  40149c:	02201825 	move	v1,s1
  4014a0:	0262180b 	movn	v1,s3,v0
  4014a4:	24630002 	addiu	v1,v1,2
  4014a8:	00031880 	sll	v1,v1,0x2
  4014ac:	02038021 	addu	s0,s0,v1
  4014b0:	8e100000 	lw	s0,0(s0)
  4014b4:	8e020000 	lw	v0,0(s0)
  4014b8:	1451ffe1 	bne	v0,s1,401440 <plural_eval+0x30>
  4014bc:	8fa50034 	lw	a1,52(sp)
  4014c0:	8e040008 	lw	a0,8(s0)
  4014c4:	0c100504 	jal	401410 <plural_eval>
  4014c8:	afa50034 	sw	a1,52(sp)
  4014cc:	2404000f 	li	a0,15
  4014d0:	8e030004 	lw	v1,4(s0)
  4014d4:	00408825 	move	s1,v0
  4014d8:	10640022 	beq	v1,a0,401564 <plural_eval+0x154>
  4014dc:	8fa50034 	lw	a1,52(sp)
  4014e0:	2402000e 	li	v0,14
  4014e4:	10620023 	beq	v1,v0,401574 <plural_eval+0x164>
  4014e8:	00000000 	nop
  4014ec:	0c100504 	jal	401410 <plural_eval>
  4014f0:	8e04000c 	lw	a0,12(s0)
  4014f4:	8e030004 	lw	v1,4(s0)
  4014f8:	00408025 	move	s0,v0
  4014fc:	2463fffd 	addiu	v1,v1,-3
  401500:	2c62000b 	sltiu	v0,v1,11
  401504:	1040000c 	beqz	v0,401538 <plural_eval+0x128>
  401508:	3c040046 	lui	a0,0x46
  40150c:	00031880 	sll	v1,v1,0x2
  401510:	24847620 	addiu	a0,a0,30240
  401514:	00831821 	addu	v1,a0,v1
  401518:	8c620000 	lw	v0,0(v1)
  40151c:	00400008 	jr	v0
  401520:	00000000 	nop
  401524:	8e020004 	lw	v0,4(s0)
  401528:	1040ffcf 	beqz	v0,401468 <plural_eval+0x58>
  40152c:	00a08825 	move	s1,a1
  401530:	1043000a 	beq	v0,v1,40155c <plural_eval+0x14c>
  401534:	00000000 	nop
  401538:	8fbf002c 	lw	ra,44(sp)
  40153c:	00008825 	move	s1,zero
  401540:	8fb30028 	lw	s3,40(sp)
  401544:	8fb20024 	lw	s2,36(sp)
  401548:	02201025 	move	v0,s1
  40154c:	8fb10020 	lw	s1,32(sp)
  401550:	8fb0001c 	lw	s0,28(sp)
  401554:	03e00008 	jr	ra
  401558:	27bd0030 	addiu	sp,sp,48
  40155c:	1000ffc2 	b	401468 <plural_eval+0x58>
  401560:	8e110008 	lw	s1,8(s0)
  401564:	10400005 	beqz	v0,40157c <plural_eval+0x16c>
  401568:	00000000 	nop
  40156c:	1000ffbe 	b	401468 <plural_eval+0x58>
  401570:	24110001 	li	s1,1
  401574:	1220ffbd 	beqz	s1,40146c <plural_eval+0x5c>
  401578:	8fbf002c 	lw	ra,44(sp)
  40157c:	0c100504 	jal	401410 <plural_eval>
  401580:	8e04000c 	lw	a0,12(s0)
  401584:	1000ffb8 	b	401468 <plural_eval+0x58>
  401588:	0002882b 	sltu	s1,zero,v0
  40158c:	02308826 	xor	s1,s1,s0
  401590:	1000ffb5 	b	401468 <plural_eval+0x58>
  401594:	0011882b 	sltu	s1,zero,s1
  401598:	1200001e 	beqz	s0,401614 <plural_eval+0x204>
  40159c:	3c190040 	lui	t9,0x40
  4015a0:	020001f4 	teq	s0,zero,0x7
  4015a4:	0230001b 	divu	zero,s1,s0
  4015a8:	1000ffaf 	b	401468 <plural_eval+0x58>
  4015ac:	00008812 	mflo	s1
  4015b0:	1000ffad 	b	401468 <plural_eval+0x58>
  4015b4:	72308802 	mul	s1,s1,s0
  4015b8:	02308826 	xor	s1,s1,s0
  4015bc:	1000ffaa 	b	401468 <plural_eval+0x58>
  4015c0:	2e310001 	sltiu	s1,s1,1
  4015c4:	0230882b 	sltu	s1,s1,s0
  4015c8:	1000ffa7 	b	401468 <plural_eval+0x58>
  4015cc:	3a310001 	xori	s1,s1,0x1
  4015d0:	0211882b 	sltu	s1,s0,s1
  4015d4:	1000ffa4 	b	401468 <plural_eval+0x58>
  4015d8:	3a310001 	xori	s1,s1,0x1
  4015dc:	1000ffa2 	b	401468 <plural_eval+0x58>
  4015e0:	0211882b 	sltu	s1,s0,s1
  4015e4:	1000ffa0 	b	401468 <plural_eval+0x58>
  4015e8:	0230882b 	sltu	s1,s1,s0
  4015ec:	1000ff9e 	b	401468 <plural_eval+0x58>
  4015f0:	02308823 	subu	s1,s1,s0
  4015f4:	1000ff9c 	b	401468 <plural_eval+0x58>
  4015f8:	02308821 	addu	s1,s1,s0
  4015fc:	1200000a 	beqz	s0,401628 <plural_eval+0x218>
  401600:	3c190040 	lui	t9,0x40
  401604:	020001f4 	teq	s0,zero,0x7
  401608:	0230001b 	divu	zero,s1,s0
  40160c:	1000ff96 	b	401468 <plural_eval+0x58>
  401610:	00008810 	mfhi	s1
  401614:	273965d0 	addiu	t9,t9,26064
  401618:	041113ed 	bal	4065d0 <raise>
  40161c:	24040008 	li	a0,8
  401620:	1000ffdf 	b	4015a0 <plural_eval+0x190>
  401624:	00000000 	nop
  401628:	273965d0 	addiu	t9,t9,26064
  40162c:	041113e8 	bal	4065d0 <raise>
  401630:	24040008 	li	a0,8
  401634:	1000fff3 	b	401604 <plural_eval+0x1f4>
  401638:	00000000 	nop

0040163c <transcmp>:
  40163c:	27bdffd8 	addiu	sp,sp,-40
  401640:	8c820010 	lw	v0,16(a0)
  401644:	afb1001c 	sw	s1,28(sp)
  401648:	00808825 	move	s1,a0
  40164c:	afb00018 	sw	s0,24(sp)
  401650:	00a08025 	move	s0,a1
  401654:	afbf0024 	sw	ra,36(sp)
  401658:	10400023 	beqz	v0,4016e8 <transcmp+0xac>
  40165c:	afb20020 	sw	s2,32(sp)
  401660:	2484001c 	addiu	a0,a0,28
  401664:	8e020010 	lw	v0,16(s0)
  401668:	1040001d 	beqz	v0,4016e0 <transcmp+0xa4>
  40166c:	00000000 	nop
  401670:	2605001c 	addiu	a1,s0,28
  401674:	3c120042 	lui	s2,0x42
  401678:	26529670 	addiu	s2,s2,-27024
  40167c:	0240c825 	move	t9,s2
  401680:	04115ffb 	bal	419670 <strcmp>
  401684:	00000000 	nop
  401688:	14400010 	bnez	v0,4016cc <transcmp+0x90>
  40168c:	8fbf0024 	lw	ra,36(sp)
  401690:	8e050000 	lw	a1,0(s0)
  401694:	0240c825 	move	t9,s2
  401698:	04115ff5 	bal	419670 <strcmp>
  40169c:	8e240000 	lw	a0,0(s1)
  4016a0:	1440000a 	bnez	v0,4016cc <transcmp+0x90>
  4016a4:	8fbf0024 	lw	ra,36(sp)
  4016a8:	8e050008 	lw	a1,8(s0)
  4016ac:	0240c825 	move	t9,s2
  4016b0:	04115fef 	bal	419670 <strcmp>
  4016b4:	8e240008 	lw	a0,8(s1)
  4016b8:	14400004 	bnez	v0,4016cc <transcmp+0x90>
  4016bc:	8fbf0024 	lw	ra,36(sp)
  4016c0:	8e220004 	lw	v0,4(s1)
  4016c4:	8e030004 	lw	v1,4(s0)
  4016c8:	00431023 	subu	v0,v0,v1
  4016cc:	8fb20020 	lw	s2,32(sp)
  4016d0:	8fb1001c 	lw	s1,28(sp)
  4016d4:	8fb00018 	lw	s0,24(sp)
  4016d8:	03e00008 	jr	ra
  4016dc:	27bd0028 	addiu	sp,sp,40
  4016e0:	1000ffe4 	b	401674 <transcmp+0x38>
  4016e4:	8e05001c 	lw	a1,28(s0)
  4016e8:	1000ffde 	b	401664 <transcmp+0x28>
  4016ec:	8c84001c 	lw	a0,28(a0)

004016f0 <_nl_find_msg>:
  4016f0:	3c1c004a 	lui	gp,0x4a
  4016f4:	8c820004 	lw	v0,4(a0)
  4016f8:	27bdff68 	addiu	sp,sp,-152
  4016fc:	279ccae0 	addiu	gp,gp,-13600
  401700:	afbe0090 	sw	s8,144(sp)
  401704:	03a0f025 	move	s8,sp
  401708:	8f838038 	lw	v1,-32712(gp)
  40170c:	8fc800a8 	lw	t0,168(s8)
  401710:	afb10074 	sw	s1,116(sp)
  401714:	00c08825 	move	s1,a2
  401718:	afc3002c 	sw	v1,44(s8)
  40171c:	afbf0094 	sw	ra,148(sp)
  401720:	afb7008c 	sw	s7,140(sp)
  401724:	afb60088 	sw	s6,136(sp)
  401728:	afb50084 	sw	s5,132(sp)
  40172c:	afb40080 	sw	s4,128(sp)
  401730:	afb3007c 	sw	s3,124(sp)
  401734:	afb20078 	sw	s2,120(sp)
  401738:	afb00070 	sw	s0,112(sp)
  40173c:	afbc0018 	sw	gp,24(sp)
  401740:	afc40030 	sw	a0,48(s8)
  401744:	afc80028 	sw	t0,40(s8)
  401748:	afc50024 	sw	a1,36(s8)
  40174c:	afc700a4 	sw	a3,164(s8)
  401750:	8c630000 	lw	v1,0(v1)
  401754:	afc3006c 	sw	v1,108(s8)
  401758:	184000ba 	blez	v0,401a44 <_nl_find_msg+0x354>
  40175c:	3c190040 	lui	t9,0x40
  401760:	8fc20030 	lw	v0,48(s8)
  401764:	8c570008 	lw	s7,8(v0)
  401768:	12e00053 	beqz	s7,4018b8 <_nl_find_msg+0x1c8>
  40176c:	00000000 	nop
  401770:	8ee30014 	lw	v1,20(s7)
  401774:	8ee20030 	lw	v0,48(s7)
  401778:	10400062 	beqz	v0,401904 <_nl_find_msg+0x214>
  40177c:	afc3004c 	sw	v1,76(s8)
  401780:	3c190042 	lui	t9,0x42
  401784:	27399b70 	addiu	t9,t9,-25744
  401788:	041160f9 	bal	419b70 <strlen>
  40178c:	02202025 	move	a0,s1
  401790:	3c190040 	lui	t9,0x40
  401794:	02202025 	move	a0,s1
  401798:	27396550 	addiu	t9,t9,25936
  40179c:	0411136c 	bal	406550 <__hash_string>
  4017a0:	0040a825 	move	s5,v0
  4017a4:	3c190042 	lui	t9,0x42
  4017a8:	8ee3002c 	lw	v1,44(s7)
  4017ac:	8fdc0018 	lw	gp,24(s8)
  4017b0:	27399670 	addiu	t9,t9,-27024
  4017b4:	8eeb0034 	lw	t3,52(s7)
  4017b8:	006001f4 	teq	v1,zero,0x7
  4017bc:	0043001b 	divu	zero,v0,v1
  4017c0:	8eea0030 	lw	t2,48(s7)
  4017c4:	2474fffe 	addiu	s4,v1,-2
  4017c8:	00003810 	mfhi	a3
  4017cc:	028001f4 	teq	s4,zero,0x7
  4017d0:	0054001b 	divu	zero,v0,s4
  4017d4:	00001010 	mfhi	v0
  4017d8:	24420001 	addiu	v0,v0,1
  4017dc:	0062a023 	subu	s4,v1,v0
  4017e0:	afc20048 	sw	v0,72(s8)
  4017e4:	00431023 	subu	v0,v0,v1
  4017e8:	afc20044 	sw	v0,68(s8)
  4017ec:	00071080 	sll	v0,a3,0x2
  4017f0:	01421021 	addu	v0,t2,v0
  4017f4:	11600003 	beqz	t3,401804 <_nl_find_msg+0x114>
  4017f8:	8c500000 	lw	s0,0(v0)
  4017fc:	7c1080a0 	wsbh	s0,s0
  401800:	00308402 	ror	s0,s0,0x10
  401804:	1200002c 	beqz	s0,4018b8 <_nl_find_msg+0x1c8>
  401808:	8fc2004c 	lw	v0,76(s8)
  40180c:	2610ffff 	addiu	s0,s0,-1
  401810:	0202102b 	sltu	v0,s0,v0
  401814:	1040005c 	beqz	v0,401988 <_nl_find_msg+0x298>
  401818:	001098c0 	sll	s3,s0,0x3
  40181c:	8ee40018 	lw	a0,24(s7)
  401820:	8ef2000c 	lw	s2,12(s7)
  401824:	00932021 	addu	a0,a0,s3
  401828:	12400080 	beqz	s2,401a2c <_nl_find_msg+0x33c>
  40182c:	8c820000 	lw	v0,0(a0)
  401830:	7c0210a0 	wsbh	v0,v0
  401834:	00221402 	ror	v0,v0,0x10
  401838:	0055102b 	sltu	v0,v0,s5
  40183c:	14400014 	bnez	v0,401890 <_nl_find_msg+0x1a0>
  401840:	00f4102b 	sltu	v0,a3,s4
  401844:	8c850004 	lw	a1,4(a0)
  401848:	8ef60000 	lw	s6,0(s7)
  40184c:	7c0528a0 	wsbh	a1,a1
  401850:	00252c02 	ror	a1,a1,0x10
  401854:	02c52821 	addu	a1,s6,a1
  401858:	afca0038 	sw	t2,56(s8)
  40185c:	afc7003c 	sw	a3,60(s8)
  401860:	02202025 	move	a0,s1
  401864:	afcb0040 	sw	t3,64(s8)
  401868:	afd90050 	sw	t9,80(s8)
  40186c:	0320f809 	jalr	t9
  401870:	afd90054 	sw	t9,84(s8)
  401874:	8fdc0018 	lw	gp,24(s8)
  401878:	8fd90054 	lw	t9,84(s8)
  40187c:	8fcb0040 	lw	t3,64(s8)
  401880:	8fc7003c 	lw	a3,60(s8)
  401884:	10400078 	beqz	v0,401a68 <_nl_find_msg+0x378>
  401888:	8fca0038 	lw	t2,56(s8)
  40188c:	00f4102b 	sltu	v0,a3,s4
  401890:	14400062 	bnez	v0,401a1c <_nl_find_msg+0x32c>
  401894:	8fc20048 	lw	v0,72(s8)
  401898:	8fc20044 	lw	v0,68(s8)
  40189c:	00e23821 	addu	a3,a3,v0
  4018a0:	00071080 	sll	v0,a3,0x2
  4018a4:	01421021 	addu	v0,t2,v0
  4018a8:	1560ffd4 	bnez	t3,4017fc <_nl_find_msg+0x10c>
  4018ac:	8c500000 	lw	s0,0(v0)
  4018b0:	1600ffd6 	bnez	s0,40180c <_nl_find_msg+0x11c>
  4018b4:	8fc2004c 	lw	v0,76(s8)
  4018b8:	00008825 	move	s1,zero
  4018bc:	8fc2002c 	lw	v0,44(s8)
  4018c0:	8fc3006c 	lw	v1,108(s8)
  4018c4:	8c420000 	lw	v0,0(v0)
  4018c8:	14620262 	bne	v1,v0,402254 <_nl_find_msg+0xb64>
  4018cc:	02201025 	move	v0,s1
  4018d0:	03c0e825 	move	sp,s8
  4018d4:	8fbf0094 	lw	ra,148(sp)
  4018d8:	8fbe0090 	lw	s8,144(sp)
  4018dc:	8fb7008c 	lw	s7,140(sp)
  4018e0:	8fb60088 	lw	s6,136(sp)
  4018e4:	8fb50084 	lw	s5,132(sp)
  4018e8:	8fb40080 	lw	s4,128(sp)
  4018ec:	8fb3007c 	lw	s3,124(sp)
  4018f0:	8fb20078 	lw	s2,120(sp)
  4018f4:	8fb10074 	lw	s1,116(sp)
  4018f8:	8fb00070 	lw	s0,112(sp)
  4018fc:	03e00008 	jr	ra
  401900:	27bd0098 	addiu	sp,sp,152
  401904:	3c140042 	lui	s4,0x42
  401908:	0000a825 	move	s5,zero
  40190c:	26999670 	addiu	t9,s4,-27024
  401910:	8fd4004c 	lw	s4,76(s8)
  401914:	02b4102b 	sltu	v0,s5,s4
  401918:	1040ffe7 	beqz	v0,4018b8 <_nl_find_msg+0x1c8>
  40191c:	00000000 	nop
  401920:	02958021 	addu	s0,s4,s5
  401924:	8ee20018 	lw	v0,24(s7)
  401928:	8ef2000c 	lw	s2,12(s7)
  40192c:	00108042 	srl	s0,s0,0x1
  401930:	8ef60000 	lw	s6,0(s7)
  401934:	001098c0 	sll	s3,s0,0x3
  401938:	00531021 	addu	v0,v0,s3
  40193c:	12400003 	beqz	s2,40194c <_nl_find_msg+0x25c>
  401940:	8c450004 	lw	a1,4(v0)
  401944:	7c0528a0 	wsbh	a1,a1
  401948:	00252c02 	ror	a1,a1,0x10
  40194c:	02c52821 	addu	a1,s6,a1
  401950:	afd90050 	sw	t9,80(s8)
  401954:	afd90054 	sw	t9,84(s8)
  401958:	0320f809 	jalr	t9
  40195c:	02202025 	move	a0,s1
  401960:	8fdc0018 	lw	gp,24(s8)
  401964:	0440002f 	bltz	v0,401a24 <_nl_find_msg+0x334>
  401968:	8fd90054 	lw	t9,84(s8)
  40196c:	1040003a 	beqz	v0,401a58 <_nl_find_msg+0x368>
  401970:	26150001 	addiu	s5,s0,1
  401974:	02b4102b 	sltu	v0,s5,s4
  401978:	1440ffe9 	bnez	v0,401920 <_nl_find_msg+0x230>
  40197c:	00000000 	nop
  401980:	1000ffce 	b	4018bc <_nl_find_msg+0x1cc>
  401984:	00008825 	move	s1,zero
  401988:	8fc2004c 	lw	v0,76(s8)
  40198c:	02023023 	subu	a2,s0,v0
  401990:	8ee20024 	lw	v0,36(s7)
  401994:	000618c0 	sll	v1,a2,0x3
  401998:	afc60054 	sw	a2,84(s8)
  40199c:	00431021 	addu	v0,v0,v1
  4019a0:	8c430000 	lw	v1,0(v0)
  4019a4:	02a3182b 	sltu	v1,s5,v1
  4019a8:	1060ffb8 	beqz	v1,40188c <_nl_find_msg+0x19c>
  4019ac:	02202025 	move	a0,s1
  4019b0:	8c450004 	lw	a1,4(v0)
  4019b4:	afca0034 	sw	t2,52(s8)
  4019b8:	afc70038 	sw	a3,56(s8)
  4019bc:	afcb003c 	sw	t3,60(s8)
  4019c0:	afd90050 	sw	t9,80(s8)
  4019c4:	0320f809 	jalr	t9
  4019c8:	afd90040 	sw	t9,64(s8)
  4019cc:	8fdc0018 	lw	gp,24(s8)
  4019d0:	8fd90040 	lw	t9,64(s8)
  4019d4:	8fcb003c 	lw	t3,60(s8)
  4019d8:	8fc70038 	lw	a3,56(s8)
  4019dc:	8fca0034 	lw	t2,52(s8)
  4019e0:	1440ffaa 	bnez	v0,40188c <_nl_find_msg+0x19c>
  4019e4:	8fc60054 	lw	a2,84(s8)
  4019e8:	8ee20028 	lw	v0,40(s7)
  4019ec:	000630c0 	sll	a2,a2,0x3
  4019f0:	00463021 	addu	a2,v0,a2
  4019f4:	8cc20000 	lw	v0,0(a2)
  4019f8:	8cd10004 	lw	s1,4(a2)
  4019fc:	afc20044 	sw	v0,68(s8)
  401a00:	8fc200a4 	lw	v0,164(s8)
  401a04:	14400025 	bnez	v0,401a9c <_nl_find_msg+0x3ac>
  401a08:	8fc20024 	lw	v0,36(s8)
  401a0c:	8fc20028 	lw	v0,40(s8)
  401a10:	8fc30044 	lw	v1,68(s8)
  401a14:	1000ffa9 	b	4018bc <_nl_find_msg+0x1cc>
  401a18:	ac430000 	sw	v1,0(v0)
  401a1c:	1000ff73 	b	4017ec <_nl_find_msg+0xfc>
  401a20:	00e23821 	addu	a3,a3,v0
  401a24:	1000ffbb 	b	401914 <_nl_find_msg+0x224>
  401a28:	0200a025 	move	s4,s0
  401a2c:	0055102b 	sltu	v0,v0,s5
  401a30:	1440ff97 	bnez	v0,401890 <_nl_find_msg+0x1a0>
  401a34:	00f4102b 	sltu	v0,a3,s4
  401a38:	8ef60000 	lw	s6,0(s7)
  401a3c:	1000ff85 	b	401854 <_nl_find_msg+0x164>
  401a40:	8c850004 	lw	a1,4(a0)
  401a44:	27392fb0 	addiu	t9,t9,12208
  401a48:	04110559 	bal	402fb0 <_nl_load_domain>
  401a4c:	00000000 	nop
  401a50:	1000ff43 	b	401760 <_nl_find_msg+0x70>
  401a54:	8fdc0018 	lw	gp,24(s8)
  401a58:	8fc2004c 	lw	v0,76(s8)
  401a5c:	0202102b 	sltu	v0,s0,v0
  401a60:	104001ff 	beqz	v0,402260 <_nl_find_msg+0xb70>
  401a64:	8fc2004c 	lw	v0,76(s8)
  401a68:	8ee2001c 	lw	v0,28(s7)
  401a6c:	00533021 	addu	a2,v0,s3
  401a70:	8cc20000 	lw	v0,0(a2)
  401a74:	124000c7 	beqz	s2,401d94 <_nl_find_msg+0x6a4>
  401a78:	8cd10004 	lw	s1,4(a2)
  401a7c:	7c0210a0 	wsbh	v0,v0
  401a80:	7c1188a0 	wsbh	s1,s1
  401a84:	00221402 	ror	v0,v0,0x10
  401a88:	00318c02 	ror	s1,s1,0x10
  401a8c:	24420001 	addiu	v0,v0,1
  401a90:	02d18821 	addu	s1,s6,s1
  401a94:	1000ffda 	b	401a00 <_nl_find_msg+0x310>
  401a98:	afc20044 	sw	v0,68(s8)
  401a9c:	104000b0 	beqz	v0,401d60 <_nl_find_msg+0x670>
  401aa0:	3c140049 	lui	s4,0x49
  401aa4:	8c550008 	lw	s5,8(v0)
  401aa8:	12a000ae 	beqz	s5,401d64 <_nl_find_msg+0x674>
  401aac:	8e825348 	lw	v0,21320(s4)
  401ab0:	8f828368 	lw	v0,-31896(gp)
  401ab4:	10400004 	beqz	v0,401ac8 <_nl_find_msg+0x3d8>
  401ab8:	8f998368 	lw	t9,-31896(gp)
  401abc:	0320f809 	jalr	t9
  401ac0:	26e40040 	addiu	a0,s7,64
  401ac4:	8fdc0018 	lw	gp,24(s8)
  401ac8:	8ee6003c 	lw	a2,60(s7)
  401acc:	00061840 	sll	v1,a2,0x1
  401ad0:	00661821 	addu	v1,v1,a2
  401ad4:	00031880 	sll	v1,v1,0x2
  401ad8:	1000000e 	b	401b14 <_nl_find_msg+0x424>
  401adc:	2463fff4 	addiu	v1,v1,-12
  401ae0:	8ef40038 	lw	s4,56(s7)
  401ae4:	24c6ffff 	addiu	a2,a2,-1
  401ae8:	02a02825 	move	a1,s5
  401aec:	afc60048 	sw	a2,72(s8)
  401af0:	0283a021 	addu	s4,s4,v1
  401af4:	2463fff4 	addiu	v1,v1,-12
  401af8:	afc30054 	sw	v1,84(s8)
  401afc:	0320f809 	jalr	t9
  401b00:	8e840000 	lw	a0,0(s4)
  401b04:	8fdc0018 	lw	gp,24(s8)
  401b08:	8fc30054 	lw	v1,84(s8)
  401b0c:	104000a5 	beqz	v0,401da4 <_nl_find_msg+0x6b4>
  401b10:	8fc60048 	lw	a2,72(s8)
  401b14:	14c0fff2 	bnez	a2,401ae0 <_nl_find_msg+0x3f0>
  401b18:	8fd90050 	lw	t9,80(s8)
  401b1c:	8f828354 	lw	v0,-31916(gp)
  401b20:	10400005 	beqz	v0,401b38 <_nl_find_msg+0x448>
  401b24:	00409825 	move	s3,v0
  401b28:	8f998354 	lw	t9,-31916(gp)
  401b2c:	0320f809 	jalr	t9
  401b30:	26e40040 	addiu	a0,s7,64
  401b34:	8fdc0018 	lw	gp,24(s8)
  401b38:	8f828374 	lw	v0,-31884(gp)
  401b3c:	10400004 	beqz	v0,401b50 <_nl_find_msg+0x460>
  401b40:	8f998374 	lw	t9,-31884(gp)
  401b44:	0320f809 	jalr	t9
  401b48:	26e40040 	addiu	a0,s7,64
  401b4c:	8fdc0018 	lw	gp,24(s8)
  401b50:	8ee6003c 	lw	a2,60(s7)
  401b54:	8ee40038 	lw	a0,56(s7)
  401b58:	00061040 	sll	v0,a2,0x1
  401b5c:	00809025 	move	s2,a0
  401b60:	00461021 	addu	v0,v0,a2
  401b64:	00021080 	sll	v0,v0,0x2
  401b68:	2443fff4 	addiu	v1,v0,-12
  401b6c:	0040b025 	move	s6,v0
  401b70:	1000000c 	b	401ba4 <_nl_find_msg+0x4b4>
  401b74:	00831821 	addu	v1,a0,v1
  401b78:	8c640000 	lw	a0,0(v1)
  401b7c:	8fd90050 	lw	t9,80(s8)
  401b80:	02a02825 	move	a1,s5
  401b84:	afc30048 	sw	v1,72(s8)
  401b88:	0060a025 	move	s4,v1
  401b8c:	0320f809 	jalr	t9
  401b90:	afc60054 	sw	a2,84(s8)
  401b94:	2683fff4 	addiu	v1,s4,-12
  401b98:	8fdc0018 	lw	gp,24(s8)
  401b9c:	10400059 	beqz	v0,401d04 <_nl_find_msg+0x614>
  401ba0:	8fc60054 	lw	a2,84(s8)
  401ba4:	14c0fff4 	bnez	a2,401b78 <_nl_find_msg+0x488>
  401ba8:	24c6ffff 	addiu	a2,a2,-1
  401bac:	26c5000c 	addiu	a1,s6,12
  401bb0:	12400143 	beqz	s2,4020c0 <_nl_find_msg+0x9d0>
  401bb4:	02402025 	move	a0,s2
  401bb8:	8f9980a0 	lw	t9,-32608(gp)
  401bbc:	041158d6 	bal	417f18 <__libc_realloc>
  401bc0:	00000000 	nop
  401bc4:	8fdc0018 	lw	gp,24(s8)
  401bc8:	0040a025 	move	s4,v0
  401bcc:	12800161 	beqz	s4,402154 <_nl_find_msg+0xa64>
  401bd0:	3c190042 	lui	t9,0x42
  401bd4:	aef40038 	sw	s4,56(s7)
  401bd8:	27399af0 	addiu	t9,t9,-25872
  401bdc:	04115fc4 	bal	419af0 <__strdup>
  401be0:	02a02025 	move	a0,s5
  401be4:	8fdc0018 	lw	gp,24(s8)
  401be8:	1040015a 	beqz	v0,402154 <_nl_find_msg+0xa64>
  401bec:	00409025 	move	s2,v0
  401bf0:	0296a021 	addu	s4,s4,s6
  401bf4:	8fc40030 	lw	a0,48(s8)
  401bf8:	3c060048 	lui	a2,0x48
  401bfc:	8fc50024 	lw	a1,36(s8)
  401c00:	2415ffff 	li	s5,-1
  401c04:	ae820000 	sw	v0,0(s4)
  401c08:	27c2005c 	addiu	v0,s8,92
  401c0c:	00003825 	move	a3,zero
  401c10:	ae950004 	sw	s5,4(s4)
  401c14:	24c6a4ec 	addiu	a2,a2,-23316
  401c18:	0c1005bc 	jal	4016f0 <_nl_find_msg>
  401c1c:	afa20010 	sw	v0,16(sp)
  401c20:	8fdc0018 	lw	gp,24(s8)
  401c24:	1055017b 	beq	v0,s5,402214 <_nl_find_msg+0xb24>
  401c28:	00402025 	move	a0,v0
  401c2c:	10400031 	beqz	v0,401cf4 <_nl_find_msg+0x604>
  401c30:	3c050046 	lui	a1,0x46
  401c34:	3c190042 	lui	t9,0x42
  401c38:	2739a23c 	addiu	t9,t9,-24004
  401c3c:	0411617f 	bal	41a23c <strstr>
  401c40:	24a57660 	addiu	a1,a1,30304
  401c44:	1040002b 	beqz	v0,401cf4 <_nl_find_msg+0x604>
  401c48:	8fdc0018 	lw	gp,24(s8)
  401c4c:	3c050046 	lui	a1,0x46
  401c50:	3c190042 	lui	t9,0x42
  401c54:	24560008 	addiu	s6,v0,8
  401c58:	24a5766c 	addiu	a1,a1,30316
  401c5c:	27399910 	addiu	t9,t9,-26352
  401c60:	04115f2b 	bal	419910 <strcspn>
  401c64:	02c02025 	move	a0,s6
  401c68:	02c02825 	move	a1,s6
  401c6c:	0040b025 	move	s6,v0
  401c70:	8fdc0018 	lw	gp,24(s8)
  401c74:	24420008 	addiu	v0,v0,8
  401c78:	02c03025 	move	a2,s6
  401c7c:	000210c2 	srl	v0,v0,0x3
  401c80:	8f998088 	lw	t9,-32632(gp)
  401c84:	000210c0 	sll	v0,v0,0x3
  401c88:	03a2e823 	subu	sp,sp,v0
  401c8c:	04116404 	bal	41aca0 <memcpy>
  401c90:	27a40018 	addiu	a0,sp,24
  401c94:	3c190043 	lui	t9,0x43
  401c98:	0056b021 	addu	s6,v0,s6
  401c9c:	27c40060 	addiu	a0,s8,96
  401ca0:	2739e1e8 	addiu	t9,t9,-7704
  401ca4:	02403025 	move	a2,s2
  401ca8:	a2c00000 	sb	zero,0(s6)
  401cac:	00402825 	move	a1,v0
  401cb0:	0320f809 	jalr	t9
  401cb4:	afc40054 	sw	a0,84(s8)
  401cb8:	3c190042 	lui	t9,0x42
  401cbc:	8fc40054 	lw	a0,84(s8)
  401cc0:	24020001 	li	v0,1
  401cc4:	24060001 	li	a2,1
  401cc8:	26850004 	addiu	a1,s4,4
  401ccc:	273920d0 	addiu	t9,t9,8400
  401cd0:	0320f809 	jalr	t9
  401cd4:	a3c20068 	sb	v0,104(s8)
  401cd8:	3c190043 	lui	t9,0x43
  401cdc:	8fc40054 	lw	a0,84(s8)
  401ce0:	2739e588 	addiu	t9,t9,-6776
  401ce4:	0320f809 	jalr	t9
  401ce8:	0040b025 	move	s6,v0
  401cec:	16c0013c 	bnez	s6,4021e0 <_nl_find_msg+0xaf0>
  401cf0:	8fdc0018 	lw	gp,24(s8)
  401cf4:	8ee2003c 	lw	v0,60(s7)
  401cf8:	ae800008 	sw	zero,8(s4)
  401cfc:	24420001 	addiu	v0,v0,1
  401d00:	aee2003c 	sw	v0,60(s7)
  401d04:	12600004 	beqz	s3,401d18 <_nl_find_msg+0x628>
  401d08:	8f998354 	lw	t9,-31916(gp)
  401d0c:	0320f809 	jalr	t9
  401d10:	26e40040 	addiu	a0,s7,64
  401d14:	8fdc0018 	lw	gp,24(s8)
  401d18:	8e830004 	lw	v1,4(s4)
  401d1c:	2402ffff 	li	v0,-1
  401d20:	1062ff3b 	beq	v1,v0,401a10 <_nl_find_msg+0x320>
  401d24:	8fc20028 	lw	v0,40(s8)
  401d28:	8e820008 	lw	v0,8(s4)
  401d2c:	104000c0 	beqz	v0,402030 <_nl_find_msg+0x940>
  401d30:	00000000 	nop
  401d34:	2403ffff 	li	v1,-1
  401d38:	104300bb 	beq	v0,v1,402028 <_nl_find_msg+0x938>
  401d3c:	00101880 	sll	v1,s0,0x2
  401d40:	00431021 	addu	v0,v0,v1
  401d44:	8c420000 	lw	v0,0(v0)
  401d48:	10400044 	beqz	v0,401e5c <_nl_find_msg+0x76c>
  401d4c:	00000000 	nop
  401d50:	8c430000 	lw	v1,0(v0)
  401d54:	24510004 	addiu	s1,v0,4
  401d58:	1000ff2c 	b	401a0c <_nl_find_msg+0x31c>
  401d5c:	afc30044 	sw	v1,68(s8)
  401d60:	8e825348 	lw	v0,21320(s4)
  401d64:	10400014 	beqz	v0,401db8 <_nl_find_msg+0x6c8>
  401d68:	3c020049 	lui	v0,0x49
  401d6c:	8c555344 	lw	s5,21316(v0)
  401d70:	16a0ff50 	bnez	s5,401ab4 <_nl_find_msg+0x3c4>
  401d74:	8f828368 	lw	v0,-31896(gp)
  401d78:	8f8283b8 	lw	v0,-31816(gp)
  401d7c:	7c03e83b 	rdhwr	v1,$29
  401d80:	00431021 	addu	v0,v0,v1
  401d84:	8c420000 	lw	v0,0(v0)
  401d88:	8c420000 	lw	v0,0(v0)
  401d8c:	1000ff48 	b	401ab0 <_nl_find_msg+0x3c0>
  401d90:	8c55005c 	lw	s5,92(v0)
  401d94:	24420001 	addiu	v0,v0,1
  401d98:	02d18821 	addu	s1,s6,s1
  401d9c:	1000ff18 	b	401a00 <_nl_find_msg+0x310>
  401da0:	afc20044 	sw	v0,68(s8)
  401da4:	8f828354 	lw	v0,-31916(gp)
  401da8:	1440ffd8 	bnez	v0,401d0c <_nl_find_msg+0x61c>
  401dac:	8f998354 	lw	t9,-31916(gp)
  401db0:	1000ffda 	b	401d1c <_nl_find_msg+0x62c>
  401db4:	8e830004 	lw	v1,4(s4)
  401db8:	3c040046 	lui	a0,0x46
  401dbc:	3c190040 	lui	t9,0x40
  401dc0:	27396e60 	addiu	t9,t9,28256
  401dc4:	04111426 	bal	406e60 <getenv>
  401dc8:	24847650 	addiu	a0,a0,30288
  401dcc:	8fdc0018 	lw	gp,24(s8)
  401dd0:	10400004 	beqz	v0,401de4 <_nl_find_msg+0x6f4>
  401dd4:	00402825 	move	a1,v0
  401dd8:	80420000 	lb	v0,0(v0)
  401ddc:	14400006 	bnez	v0,401df8 <_nl_find_msg+0x708>
  401de0:	00000000 	nop
  401de4:	3c020049 	lui	v0,0x49
  401de8:	8c555344 	lw	s5,21316(v0)
  401dec:	24020001 	li	v0,1
  401df0:	1000ffdf 	b	401d70 <_nl_find_msg+0x680>
  401df4:	ae825348 	sw	v0,21320(s4)
  401df8:	3c190042 	lui	t9,0x42
  401dfc:	afc50048 	sw	a1,72(s8)
  401e00:	27399b70 	addiu	t9,t9,-25744
  401e04:	04115f5a 	bal	419b70 <strlen>
  401e08:	00a02025 	move	a0,a1
  401e0c:	8fdc0018 	lw	gp,24(s8)
  401e10:	24460001 	addiu	a2,v0,1
  401e14:	00c02025 	move	a0,a2
  401e18:	8f9980a4 	lw	t9,-32604(gp)
  401e1c:	041155c2 	bal	417528 <__libc_malloc>
  401e20:	afc60054 	sw	a2,84(s8)
  401e24:	8fdc0018 	lw	gp,24(s8)
  401e28:	10400007 	beqz	v0,401e48 <_nl_find_msg+0x758>
  401e2c:	0040a825 	move	s5,v0
  401e30:	8f998088 	lw	t9,-32632(gp)
  401e34:	00402025 	move	a0,v0
  401e38:	8fc60054 	lw	a2,84(s8)
  401e3c:	04116398 	bal	41aca0 <memcpy>
  401e40:	8fc50048 	lw	a1,72(s8)
  401e44:	8fdc0018 	lw	gp,24(s8)
  401e48:	3c020049 	lui	v0,0x49
  401e4c:	ac555344 	sw	s5,21316(v0)
  401e50:	24020001 	li	v0,1
  401e54:	1000ffc6 	b	401d70 <_nl_find_msg+0x680>
  401e58:	ae825348 	sw	v0,21320(s4)
  401e5c:	3c020049 	lui	v0,0x49
  401e60:	00402025 	move	a0,v0
  401e64:	afc20040 	sw	v0,64(s8)
  401e68:	c0835354 	ll	v1,21332(a0)
  401e6c:	14600006 	bnez	v1,401e88 <_nl_find_msg+0x798>
  401e70:	24020000 	li	v0,0
  401e74:	24010001 	li	at,1
  401e78:	e0815354 	sc	at,21332(a0)
  401e7c:	1020fffa 	beqz	at,401e68 <_nl_find_msg+0x778>
  401e80:	24020001 	li	v0,1
  401e84:	0000000f 	sync
  401e88:	104000c4 	beqz	v0,40219c <_nl_find_msg+0xaac>
  401e8c:	8fc20040 	lw	v0,64(s8)
  401e90:	3c150049 	lui	s5,0x49
  401e94:	afd10058 	sw	s1,88(s8)
  401e98:	27c3005c 	addiu	v1,s8,92
  401e9c:	3c040042 	lui	a0,0x42
  401ea0:	afc30050 	sw	v1,80(s8)
  401ea4:	27c30058 	addiu	v1,s8,88
  401ea8:	8ea25350 	lw	v0,21328(s5)
  401eac:	3c120049 	lui	s2,0x49
  401eb0:	afc3004c 	sw	v1,76(s8)
  401eb4:	248324d0 	addiu	v1,a0,9424
  401eb8:	0000b025 	move	s6,zero
  401ebc:	24420004 	addiu	v0,v0,4
  401ec0:	afc30048 	sw	v1,72(s8)
  401ec4:	8e45534c 	lw	a1,21324(s2)
  401ec8:	3c130049 	lui	s3,0x49
  401ecc:	10000014 	b	401f20 <_nl_find_msg+0x830>
  401ed0:	afc2005c 	sw	v0,92(s8)
  401ed4:	26d60001 	addiu	s6,s6,1
  401ed8:	8e775358 	lw	s7,21336(s3)
  401edc:	00162a00 	sll	a1,s6,0x8
  401ee0:	02e02025 	move	a0,s7
  401ee4:	00b62823 	subu	a1,a1,s6
  401ee8:	00052900 	sll	a1,a1,0x4
  401eec:	ae45534c 	sw	a1,21324(s2)
  401ef0:	04115809 	bal	417f18 <__libc_realloc>
  401ef4:	afc50054 	sw	a1,84(s8)
  401ef8:	10400030 	beqz	v0,401fbc <_nl_find_msg+0x8cc>
  401efc:	8fdc0018 	lw	gp,24(s8)
  401f00:	8fc50054 	lw	a1,84(s8)
  401f04:	ae625358 	sw	v0,21336(s3)
  401f08:	24a5fffc 	addiu	a1,a1,-4
  401f0c:	24440004 	addiu	a0,v0,4
  401f10:	ae45534c 	sw	a1,21324(s2)
  401f14:	24420008 	addiu	v0,v0,8
  401f18:	aea45350 	sw	a0,21328(s5)
  401f1c:	afc2005c 	sw	v0,92(s8)
  401f20:	2ca20004 	sltiu	v0,a1,4
  401f24:	14400016 	bnez	v0,401f80 <_nl_find_msg+0x890>
  401f28:	8fc2005c 	lw	v0,92(s8)
  401f2c:	24a5fffc 	addiu	a1,a1,-4
  401f30:	8e840004 	lw	a0,4(s4)
  401f34:	8fc60058 	lw	a2,88(s8)
  401f38:	00452821 	addu	a1,v0,a1
  401f3c:	8fc70050 	lw	a3,80(s8)
  401f40:	27c20060 	addiu	v0,s8,96
  401f44:	8fd90048 	lw	t9,72(s8)
  401f48:	afa50010 	sw	a1,16(sp)
  401f4c:	afa20014 	sw	v0,20(sp)
  401f50:	8fc20044 	lw	v0,68(s8)
  401f54:	8fc5004c 	lw	a1,76(s8)
  401f58:	0320f809 	jalr	t9
  401f5c:	00c23021 	addu	a2,a2,v0
  401f60:	2404fffb 	li	a0,-5
  401f64:	00442024 	and	a0,v0,a0
  401f68:	1080005b 	beqz	a0,4020d8 <_nl_find_msg+0x9e8>
  401f6c:	8fdc0018 	lw	gp,24(s8)
  401f70:	24040005 	li	a0,5
  401f74:	1444008f 	bne	v0,a0,4021b4 <_nl_find_msg+0xac4>
  401f78:	8fc30040 	lw	v1,64(s8)
  401f7c:	afd10058 	sw	s1,88(s8)
  401f80:	16c0ffd4 	bnez	s6,401ed4 <_nl_find_msg+0x7e4>
  401f84:	8f9980a0 	lw	t9,-32608(gp)
  401f88:	8f9980a4 	lw	t9,-32604(gp)
  401f8c:	24020ff0 	li	v0,4080
  401f90:	24040ff0 	li	a0,4080
  401f94:	04115564 	bal	417528 <__libc_malloc>
  401f98:	ae42534c 	sw	v0,21324(s2)
  401f9c:	1040000d 	beqz	v0,401fd4 <_nl_find_msg+0x8e4>
  401fa0:	8fdc0018 	lw	gp,24(s8)
  401fa4:	8e645358 	lw	a0,21336(s3)
  401fa8:	24050fec 	li	a1,4076
  401fac:	24160001 	li	s6,1
  401fb0:	ae625358 	sw	v0,21336(s3)
  401fb4:	1000ffd5 	b	401f0c <_nl_find_msg+0x81c>
  401fb8:	ac440000 	sw	a0,0(v0)
  401fbc:	8ee20000 	lw	v0,0(s7)
  401fc0:	02e02025 	move	a0,s7
  401fc4:	8f99804c 	lw	t9,-32692(gp)
  401fc8:	0411572a 	bal	417c74 <__free>
  401fcc:	ae625358 	sw	v0,21336(s3)
  401fd0:	8fdc0018 	lw	gp,24(s8)
  401fd4:	8fc30040 	lw	v1,64(s8)
  401fd8:	aea05350 	sw	zero,21328(s5)
  401fdc:	ae40534c 	sw	zero,21324(s2)
  401fe0:	0000000f 	sync
  401fe4:	c0625354 	ll	v0,21332(v1)
  401fe8:	24010000 	li	at,0
  401fec:	e0615354 	sc	at,21332(v1)
  401ff0:	1020fffc 	beqz	at,401fe4 <_nl_find_msg+0x8f4>
  401ff4:	00000000 	nop
  401ff8:	28420002 	slti	v0,v0,2
  401ffc:	1440fe2f 	bnez	v0,4018bc <_nl_find_msg+0x1cc>
  402000:	2411ffff 	li	s1,-1
  402004:	8fc20040 	lw	v0,64(s8)
  402008:	24050081 	li	a1,129
  40200c:	24060001 	li	a2,1
  402010:	00003825 	move	a3,zero
  402014:	24445354 	addiu	a0,v0,21332
  402018:	2402108e 	li	v0,4238
  40201c:	0000000c 	syscall
  402020:	1000fe27 	b	4018c0 <_nl_find_msg+0x1d0>
  402024:	8fc2002c 	lw	v0,44(s8)
  402028:	1000fe24 	b	4018bc <_nl_find_msg+0x1cc>
  40202c:	2411ffff 	li	s1,-1
  402030:	3c020049 	lui	v0,0x49
  402034:	00402025 	move	a0,v0
  402038:	afc20040 	sw	v0,64(s8)
  40203c:	c0835354 	ll	v1,21332(a0)
  402040:	14600006 	bnez	v1,40205c <_nl_find_msg+0x96c>
  402044:	24020000 	li	v0,0
  402048:	24010001 	li	at,1
  40204c:	e0815354 	sc	at,21332(a0)
  402050:	1020fffa 	beqz	at,40203c <_nl_find_msg+0x94c>
  402054:	24020001 	li	v0,1
  402058:	0000000f 	sync
  40205c:	1040006f 	beqz	v0,40221c <_nl_find_msg+0xb2c>
  402060:	8fc20040 	lw	v0,64(s8)
  402064:	8e820008 	lw	v0,8(s4)
  402068:	10400041 	beqz	v0,402170 <_nl_find_msg+0xa80>
  40206c:	24050004 	li	a1,4
  402070:	8fc30040 	lw	v1,64(s8)
  402074:	0000000f 	sync
  402078:	c0625354 	ll	v0,21332(v1)
  40207c:	24010000 	li	at,0
  402080:	e0615354 	sc	at,21332(v1)
  402084:	1020fffc 	beqz	at,402078 <_nl_find_msg+0x988>
  402088:	00000000 	nop
  40208c:	28420002 	slti	v0,v0,2
  402090:	10400003 	beqz	v0,4020a0 <_nl_find_msg+0x9b0>
  402094:	24050081 	li	a1,129
  402098:	1000ff26 	b	401d34 <_nl_find_msg+0x644>
  40209c:	8e820008 	lw	v0,8(s4)
  4020a0:	8fc20040 	lw	v0,64(s8)
  4020a4:	24060001 	li	a2,1
  4020a8:	00003825 	move	a3,zero
  4020ac:	24445354 	addiu	a0,v0,21332
  4020b0:	2402108e 	li	v0,4238
  4020b4:	0000000c 	syscall
  4020b8:	1000ff1e 	b	401d34 <_nl_find_msg+0x644>
  4020bc:	8e820008 	lw	v0,8(s4)
  4020c0:	8f9980a4 	lw	t9,-32604(gp)
  4020c4:	04115518 	bal	417528 <__libc_malloc>
  4020c8:	00a02025 	move	a0,a1
  4020cc:	8fdc0018 	lw	gp,24(s8)
  4020d0:	1000febe 	b	401bcc <_nl_find_msg+0x4dc>
  4020d4:	0040a025 	move	s4,v0
  4020d8:	8fc3005c 	lw	v1,92(s8)
  4020dc:	00108080 	sll	s0,s0,0x2
  4020e0:	8ea65350 	lw	a2,21328(s5)
  4020e4:	8e42534c 	lw	v0,21324(s2)
  4020e8:	8e850008 	lw	a1,8(s4)
  4020ec:	00662023 	subu	a0,v1,a2
  4020f0:	00441023 	subu	v0,v0,a0
  4020f4:	00b02821 	addu	a1,a1,s0
  4020f8:	30470003 	andi	a3,v0,0x3
  4020fc:	00671821 	addu	v1,v1,a3
  402100:	2407fffc 	li	a3,-4
  402104:	aea35350 	sw	v1,21328(s5)
  402108:	2484fffc 	addiu	a0,a0,-4
  40210c:	8fc30040 	lw	v1,64(s8)
  402110:	00471024 	and	v0,v0,a3
  402114:	acc40000 	sw	a0,0(a2)
  402118:	ae42534c 	sw	v0,21324(s2)
  40211c:	aca60000 	sw	a2,0(a1)
  402120:	0000000f 	sync
  402124:	c0625354 	ll	v0,21332(v1)
  402128:	24010000 	li	at,0
  40212c:	e0615354 	sc	at,21332(v1)
  402130:	1020fffc 	beqz	at,402124 <_nl_find_msg+0xa34>
  402134:	00000000 	nop
  402138:	28420002 	slti	v0,v0,2
  40213c:	1040003d 	beqz	v0,402234 <_nl_find_msg+0xb44>
  402140:	24050081 	li	a1,129
  402144:	8e820008 	lw	v0,8(s4)
  402148:	00508021 	addu	s0,v0,s0
  40214c:	1000ff00 	b	401d50 <_nl_find_msg+0x660>
  402150:	8e020000 	lw	v0,0(s0)
  402154:	1260ffb4 	beqz	s3,402028 <_nl_find_msg+0x938>
  402158:	26e40040 	addiu	a0,s7,64
  40215c:	8f998354 	lw	t9,-31916(gp)
  402160:	0320f809 	jalr	t9
  402164:	2411ffff 	li	s1,-1
  402168:	1000fdd4 	b	4018bc <_nl_find_msg+0x1cc>
  40216c:	8fdc0018 	lw	gp,24(s8)
  402170:	8ee40020 	lw	a0,32(s7)
  402174:	8fc2004c 	lw	v0,76(s8)
  402178:	8f998058 	lw	t9,-32680(gp)
  40217c:	041158c9 	bal	4184a4 <__calloc>
  402180:	00442021 	addu	a0,v0,a0
  402184:	8fdc0018 	lw	gp,24(s8)
  402188:	1440ff41 	bnez	v0,401e90 <_nl_find_msg+0x7a0>
  40218c:	ae820008 	sw	v0,8(s4)
  402190:	2402ffff 	li	v0,-1
  402194:	1000ffb6 	b	402070 <_nl_find_msg+0x980>
  402198:	ae820008 	sw	v0,8(s4)
  40219c:	3c190041 	lui	t9,0x41
  4021a0:	27392170 	addiu	t9,t9,8560
  4021a4:	04113ff2 	bal	412170 <__lll_lock_wait_private>
  4021a8:	24445354 	addiu	a0,v0,21332
  4021ac:	1000ff38 	b	401e90 <_nl_find_msg+0x7a0>
  4021b0:	8fdc0018 	lw	gp,24(s8)
  4021b4:	0000000f 	sync
  4021b8:	c0625354 	ll	v0,21332(v1)
  4021bc:	24010000 	li	at,0
  4021c0:	e0615354 	sc	at,21332(v1)
  4021c4:	1020fffc 	beqz	at,4021b8 <_nl_find_msg+0xac8>
  4021c8:	00000000 	nop
  4021cc:	28420002 	slti	v0,v0,2
  4021d0:	1440fdba 	bnez	v0,4018bc <_nl_find_msg+0x1cc>
  4021d4:	00008825 	move	s1,zero
  4021d8:	1000ff8b 	b	402008 <_nl_find_msg+0x918>
  4021dc:	8fc20040 	lw	v0,64(s8)
  4021e0:	12d50021 	beq	s6,s5,402268 <_nl_find_msg+0xb78>
  4021e4:	00000000 	nop
  4021e8:	12600005 	beqz	s3,402200 <_nl_find_msg+0xb10>
  4021ec:	00000000 	nop
  4021f0:	8f998354 	lw	t9,-31916(gp)
  4021f4:	0320f809 	jalr	t9
  4021f8:	26e40040 	addiu	a0,s7,64
  4021fc:	8fdc0018 	lw	gp,24(s8)
  402200:	8f99804c 	lw	t9,-32692(gp)
  402204:	0411569b 	bal	417c74 <__free>
  402208:	02402025 	move	a0,s2
  40220c:	00002025 	move	a0,zero
  402210:	8fdc0018 	lw	gp,24(s8)
  402214:	1000fda9 	b	4018bc <_nl_find_msg+0x1cc>
  402218:	00808825 	move	s1,a0
  40221c:	3c190041 	lui	t9,0x41
  402220:	27392170 	addiu	t9,t9,8560
  402224:	04113fd2 	bal	412170 <__lll_lock_wait_private>
  402228:	24445354 	addiu	a0,v0,21332
  40222c:	1000ff8d 	b	402064 <_nl_find_msg+0x974>
  402230:	8fdc0018 	lw	gp,24(s8)
  402234:	8fc20040 	lw	v0,64(s8)
  402238:	24060001 	li	a2,1
  40223c:	00003825 	move	a3,zero
  402240:	24445354 	addiu	a0,v0,21332
  402244:	2402108e 	li	v0,4238
  402248:	0000000c 	syscall
  40224c:	1000ffbe 	b	402148 <_nl_find_msg+0xa58>
  402250:	8e820008 	lw	v0,8(s4)
  402254:	8f998054 	lw	t9,-32684(gp)
  402258:	04117495 	bal	41f4b0 <__stack_chk_fail>
  40225c:	00000000 	nop
  402260:	1000fde1 	b	4019e8 <_nl_find_msg+0x2f8>
  402264:	02023023 	subu	a2,s0,v0
  402268:	1000fea2 	b	401cf4 <_nl_find_msg+0x604>
  40226c:	ae960004 	sw	s6,4(s4)

00402270 <__dcigettext>:
  402270:	3c1c004a 	lui	gp,0x4a
  402274:	27bdff38 	addiu	sp,sp,-200
  402278:	279ccae0 	addiu	gp,gp,-13600
  40227c:	afbe00c0 	sw	s8,192(sp)
  402280:	03a0f025 	move	s8,sp
  402284:	8f828038 	lw	v0,-32712(gp)
  402288:	afbf00c4 	sw	ra,196(sp)
  40228c:	afb700bc 	sw	s7,188(sp)
  402290:	afc20060 	sw	v0,96(s8)
  402294:	afb600b8 	sw	s6,184(sp)
  402298:	afb500b4 	sw	s5,180(sp)
  40229c:	afb400b0 	sw	s4,176(sp)
  4022a0:	afb300ac 	sw	s3,172(sp)
  4022a4:	afb200a8 	sw	s2,168(sp)
  4022a8:	afb100a4 	sw	s1,164(sp)
  4022ac:	afb000a0 	sw	s0,160(sp)
  4022b0:	afbc0018 	sw	gp,24(sp)
  4022b4:	afc00074 	sw	zero,116(s8)
  4022b8:	afc60054 	sw	a2,84(s8)
  4022bc:	afc700d4 	sw	a3,212(s8)
  4022c0:	8c420000 	lw	v0,0(v0)
  4022c4:	afc2009c 	sw	v0,156(s8)
  4022c8:	10a00194 	beqz	a1,40291c <__dcigettext+0x6ac>
  4022cc:	8fc200dc 	lw	v0,220(s8)
  4022d0:	2c42000d 	sltiu	v0,v0,13
  4022d4:	104000f1 	beqz	v0,40269c <__dcigettext+0x42c>
  4022d8:	00a09825 	move	s3,a1
  4022dc:	8fc300dc 	lw	v1,220(s8)
  4022e0:	24020006 	li	v0,6
  4022e4:	106200ed 	beq	v1,v0,40269c <__dcigettext+0x42c>
  4022e8:	8f8283d0 	lw	v0,-31792(gp)
  4022ec:	00809025 	move	s2,a0
  4022f0:	7c03e83b 	rdhwr	v1,$29
  4022f4:	8f908368 	lw	s0,-31896(gp)
  4022f8:	00402025 	move	a0,v0
  4022fc:	afc20044 	sw	v0,68(s8)
  402300:	00831021 	addu	v0,a0,v1
  402304:	8c420000 	lw	v0,0(v0)
  402308:	1200000b 	beqz	s0,402338 <__dcigettext+0xc8>
  40230c:	afc20048 	sw	v0,72(s8)
  402310:	3c040049 	lui	a0,0x49
  402314:	8f998368 	lw	t9,-31896(gp)
  402318:	0320f809 	jalr	t9
  40231c:	24845800 	addiu	a0,a0,22528
  402320:	12000005 	beqz	s0,402338 <__dcigettext+0xc8>
  402324:	8fdc0018 	lw	gp,24(s8)
  402328:	3c040049 	lui	a0,0x49
  40232c:	8f998368 	lw	t9,-31896(gp)
  402330:	0320f809 	jalr	t9
  402334:	24845320 	addiu	a0,a0,21280
  402338:	12400176 	beqz	s2,402914 <__dcigettext+0x6a4>
  40233c:	3c020049 	lui	v0,0x49
  402340:	3c110043 	lui	s1,0x43
  402344:	8fc400dc 	lw	a0,220(s8)
  402348:	afc0008c 	sw	zero,140(s8)
  40234c:	26310e60 	addiu	s1,s1,3680
  402350:	afd30098 	sw	s3,152(s8)
  402354:	afd2007c 	sw	s2,124(s8)
  402358:	0220c825 	move	t9,s1
  40235c:	0320f809 	jalr	t9
  402360:	afc40080 	sw	a0,128(s8)
  402364:	8fdc0018 	lw	gp,24(s8)
  402368:	afc2003c 	sw	v0,60(s8)
  40236c:	12000006 	beqz	s0,402388 <__dcigettext+0x118>
  402370:	afc20084 	sw	v0,132(s8)
  402374:	3c040049 	lui	a0,0x49
  402378:	8f998368 	lw	t9,-31896(gp)
  40237c:	0320f809 	jalr	t9
  402380:	24845360 	addiu	a0,a0,21344
  402384:	8fdc0018 	lw	gp,24(s8)
  402388:	8f908354 	lw	s0,-31916(gp)
  40238c:	3c020040 	lui	v0,0x40
  402390:	3c030049 	lui	v1,0x49
  402394:	3c190042 	lui	t9,0x42
  402398:	afc20034 	sw	v0,52(s8)
  40239c:	2446163c 	addiu	a2,v0,5692
  4023a0:	afd0005c 	sw	s0,92(s8)
  4023a4:	2465535c 	addiu	a1,v1,21340
  4023a8:	afc30038 	sw	v1,56(s8)
  4023ac:	2739e2cc 	addiu	t9,t9,-7476
  4023b0:	04116fc6 	bal	41e2cc <__tfind>
  4023b4:	27c4007c 	addiu	a0,s8,124
  4023b8:	8fdc0018 	lw	gp,24(s8)
  4023bc:	12000006 	beqz	s0,4023d8 <__dcigettext+0x168>
  4023c0:	afc20050 	sw	v0,80(s8)
  4023c4:	3c040049 	lui	a0,0x49
  4023c8:	8f998354 	lw	t9,-31916(gp)
  4023cc:	0320f809 	jalr	t9
  4023d0:	24845360 	addiu	a0,a0,21344
  4023d4:	8fdc0018 	lw	gp,24(s8)
  4023d8:	8fc20050 	lw	v0,80(s8)
  4023dc:	10400006 	beqz	v0,4023f8 <__dcigettext+0x188>
  4023e0:	8f8380a8 	lw	v1,-32600(gp)
  4023e4:	8c420000 	lw	v0,0(v0)
  4023e8:	8c44000c 	lw	a0,12(v0)
  4023ec:	8c630000 	lw	v1,0(v1)
  4023f0:	1083014c 	beq	a0,v1,402924 <__dcigettext+0x6b4>
  4023f4:	8fc300d4 	lw	v1,212(s8)
  4023f8:	3c020049 	lui	v0,0x49
  4023fc:	8c505340 	lw	s0,21312(v0)
  402400:	120000c1 	beqz	s0,402708 <__dcigettext+0x498>
  402404:	00000000 	nop
  402408:	3c140042 	lui	s4,0x42
  40240c:	10000006 	b	402428 <__dcigettext+0x1b8>
  402410:	26949670 	addiu	s4,s4,-27024
  402414:	044000bb 	bltz	v0,402704 <__dcigettext+0x494>
  402418:	00000000 	nop
  40241c:	8e100000 	lw	s0,0(s0)
  402420:	120000b9 	beqz	s0,402708 <__dcigettext+0x498>
  402424:	00000000 	nop
  402428:	2605000c 	addiu	a1,s0,12
  40242c:	0280c825 	move	t9,s4
  402430:	04115c8f 	bal	419670 <strcmp>
  402434:	02402025 	move	a0,s2
  402438:	1440fff6 	bnez	v0,402414 <__dcigettext+0x1a4>
  40243c:	00000000 	nop
  402440:	8e140004 	lw	s4,4(s0)
  402444:	2402002f 	li	v0,47
  402448:	82830000 	lb	v1,0(s4)
  40244c:	146200b1 	bne	v1,v0,402714 <__dcigettext+0x4a4>
  402450:	3c190042 	lui	t9,0x42
  402454:	3c020047 	lui	v0,0x47
  402458:	8fc300dc 	lw	v1,220(s8)
  40245c:	3c160047 	lui	s6,0x47
  402460:	2442ac80 	addiu	v0,v0,-21376
  402464:	26d6ac90 	addiu	s6,s6,-21360
  402468:	00621021 	addu	v0,v1,v0
  40246c:	00602025 	move	a0,v1
  402470:	0220c825 	move	t9,s1
  402474:	90450000 	lbu	a1,0(v0)
  402478:	0320f809 	jalr	t9
  40247c:	02c5b021 	addu	s6,s6,a1
  402480:	0040a825 	move	s5,v0
  402484:	90420000 	lbu	v0,0(v0)
  402488:	2442ffbd 	addiu	v0,v0,-67
  40248c:	144000b9 	bnez	v0,402774 <__dcigettext+0x504>
  402490:	3c040046 	lui	a0,0x46
  402494:	92a20001 	lbu	v0,1(s5)
  402498:	144000b7 	bnez	v0,402778 <__dcigettext+0x508>
  40249c:	3c190040 	lui	t9,0x40
  4024a0:	3c020042 	lui	v0,0x42
  4024a4:	02402025 	move	a0,s2
  4024a8:	24599b70 	addiu	t9,v0,-25744
  4024ac:	27c20078 	addiu	v0,s8,120
  4024b0:	afd9004c 	sw	t9,76(s8)
  4024b4:	04115dae 	bal	419b70 <strlen>
  4024b8:	afc20058 	sw	v0,88(s8)
  4024bc:	02c02025 	move	a0,s6
  4024c0:	8fd9004c 	lw	t9,76(s8)
  4024c4:	00408825 	move	s1,v0
  4024c8:	0320f809 	jalr	t9
  4024cc:	afc20030 	sw	v0,48(s8)
  4024d0:	02c02825 	move	a1,s6
  4024d4:	00511021 	addu	v0,v0,s1
  4024d8:	8fdc0018 	lw	gp,24(s8)
  4024dc:	2442000c 	addiu	v0,v0,12
  4024e0:	000210c2 	srl	v0,v0,0x3
  4024e4:	8f9980ac 	lw	t9,-32596(gp)
  4024e8:	000210c0 	sll	v0,v0,0x3
  4024ec:	03a2e823 	subu	sp,sp,v0
  4024f0:	27b60018 	addiu	s6,sp,24
  4024f4:	041161b6 	bal	41abd0 <stpcpy>
  4024f8:	02c02025 	move	a0,s6
  4024fc:	2403002f 	li	v1,47
  402500:	8fdc0018 	lw	gp,24(s8)
  402504:	24440001 	addiu	a0,v0,1
  402508:	02203025 	move	a2,s1
  40250c:	a0430000 	sb	v1,0(v0)
  402510:	8f998088 	lw	t9,-32632(gp)
  402514:	041161e2 	bal	41aca0 <memcpy>
  402518:	02402825 	move	a1,s2
  40251c:	3c030046 	lui	v1,0x46
  402520:	00511021 	addu	v0,v0,s1
  402524:	8fd9004c 	lw	t9,76(s8)
  402528:	02a02025 	move	a0,s5
  40252c:	8c637684 	lw	v1,30340(v1)
  402530:	a8430000 	swl	v1,0(v0)
  402534:	0320f809 	jalr	t9
  402538:	b8430003 	swr	v1,3(v0)
  40253c:	3c030046 	lui	v1,0x46
  402540:	24420008 	addiu	v0,v0,8
  402544:	8fdc0018 	lw	gp,24(s8)
  402548:	afc3006c 	sw	v1,108(s8)
  40254c:	000210c2 	srl	v0,v0,0x3
  402550:	000210c0 	sll	v0,v0,0x3
  402554:	03a2e823 	subu	sp,sp,v0
  402558:	3c020042 	lui	v0,0x42
  40255c:	27b10018 	addiu	s1,sp,24
  402560:	24429670 	addiu	v0,v0,-27024
  402564:	afc20068 	sw	v0,104(s8)
  402568:	3c020040 	lui	v0,0x40
  40256c:	24422c00 	addiu	v0,v0,11264
  402570:	afc20064 	sw	v0,100(s8)
  402574:	3c020042 	lui	v0,0x42
  402578:	24429560 	addiu	v0,v0,-27296
  40257c:	afc20040 	sw	v0,64(s8)
  402580:	82a20000 	lb	v0,0(s5)
  402584:	2403003a 	li	v1,58
  402588:	10430083 	beq	v0,v1,402798 <__dcigettext+0x528>
  40258c:	00000000 	nop
  402590:	14400083 	bnez	v0,4027a0 <__dcigettext+0x530>
  402594:	2404003a 	li	a0,58
  402598:	24024300 	li	v0,17152
  40259c:	a6220000 	sh	v0,0(s1)
  4025a0:	92220000 	lbu	v0,0(s1)
  4025a4:	2442ffbd 	addiu	v0,v0,-67
  4025a8:	14400004 	bnez	v0,4025bc <__dcigettext+0x34c>
  4025ac:	8fc2006c 	lw	v0,108(s8)
  4025b0:	92220001 	lbu	v0,1(s1)
  4025b4:	1040001d 	beqz	v0,40262c <__dcigettext+0x3bc>
  4025b8:	8fc2006c 	lw	v0,108(s8)
  4025bc:	02202025 	move	a0,s1
  4025c0:	8fd90068 	lw	t9,104(s8)
  4025c4:	0320f809 	jalr	t9
  4025c8:	24457688 	addiu	a1,v0,30344
  4025cc:	10400017 	beqz	v0,40262c <__dcigettext+0x3bc>
  4025d0:	8fdc0018 	lw	gp,24(s8)
  4025d4:	8fd90064 	lw	t9,100(s8)
  4025d8:	02003825 	move	a3,s0
  4025dc:	02c03025 	move	a2,s6
  4025e0:	02202825 	move	a1,s1
  4025e4:	0320f809 	jalr	t9
  4025e8:	02802025 	move	a0,s4
  4025ec:	8fdc0018 	lw	gp,24(s8)
  4025f0:	1040ffe3 	beqz	v0,402580 <__dcigettext+0x310>
  4025f4:	0040b825 	move	s7,v0
  4025f8:	8fc20058 	lw	v0,88(s8)
  4025fc:	24070001 	li	a3,1
  402600:	02603025 	move	a2,s3
  402604:	02002825 	move	a1,s0
  402608:	afa20010 	sw	v0,16(sp)
  40260c:	0c1005bc 	jal	4016f0 <_nl_find_msg>
  402610:	02e02025 	move	a0,s7
  402614:	10400077 	beqz	v0,4027f4 <__dcigettext+0x584>
  402618:	8fdc0018 	lw	gp,24(s8)
  40261c:	00403825 	move	a3,v0
  402620:	2402ffff 	li	v0,-1
  402624:	14e20091 	bne	a3,v0,40286c <__dcigettext+0x5fc>
  402628:	8f99804c 	lw	t9,-32692(gp)
  40262c:	8f99804c 	lw	t9,-32692(gp)
  402630:	04115590 	bal	417c74 <__free>
  402634:	8fc40074 	lw	a0,116(s8)
  402638:	8fd0005c 	lw	s0,92(s8)
  40263c:	1200000c 	beqz	s0,402670 <__dcigettext+0x400>
  402640:	8fdc0018 	lw	gp,24(s8)
  402644:	3c040049 	lui	a0,0x49
  402648:	8f998354 	lw	t9,-31916(gp)
  40264c:	0320f809 	jalr	t9
  402650:	24845320 	addiu	a0,a0,21280
  402654:	12000006 	beqz	s0,402670 <__dcigettext+0x400>
  402658:	8fdc0018 	lw	gp,24(s8)
  40265c:	3c040049 	lui	a0,0x49
  402660:	8f998354 	lw	t9,-31916(gp)
  402664:	0320f809 	jalr	t9
  402668:	24845800 	addiu	a0,a0,22528
  40266c:	8fdc0018 	lw	gp,24(s8)
  402670:	7c03e83b 	rdhwr	v1,$29
  402674:	00601025 	move	v0,v1
  402678:	8fc30044 	lw	v1,68(s8)
  40267c:	00621021 	addu	v0,v1,v0
  402680:	8fc30048 	lw	v1,72(s8)
  402684:	ac430000 	sw	v1,0(v0)
  402688:	8fc200d4 	lw	v0,212(s8)
  40268c:	14400007 	bnez	v0,4026ac <__dcigettext+0x43c>
  402690:	8fc300d8 	lw	v1,216(s8)
  402694:	10000009 	b	4026bc <__dcigettext+0x44c>
  402698:	02603825 	move	a3,s3
  40269c:	8fc200d4 	lw	v0,212(s8)
  4026a0:	10400006 	beqz	v0,4026bc <__dcigettext+0x44c>
  4026a4:	02603825 	move	a3,s3
  4026a8:	8fc300d8 	lw	v1,216(s8)
  4026ac:	24020001 	li	v0,1
  4026b0:	10620002 	beq	v1,v0,4026bc <__dcigettext+0x44c>
  4026b4:	02603825 	move	a3,s3
  4026b8:	8fc70054 	lw	a3,84(s8)
  4026bc:	8fc20060 	lw	v0,96(s8)
  4026c0:	8fc3009c 	lw	v1,156(s8)
  4026c4:	8c420000 	lw	v0,0(v0)
  4026c8:	14620147 	bne	v1,v0,402be8 <__dcigettext+0x978>
  4026cc:	00e01025 	move	v0,a3
  4026d0:	03c0e825 	move	sp,s8
  4026d4:	8fbf00c4 	lw	ra,196(sp)
  4026d8:	8fbe00c0 	lw	s8,192(sp)
  4026dc:	8fb700bc 	lw	s7,188(sp)
  4026e0:	8fb600b8 	lw	s6,184(sp)
  4026e4:	8fb500b4 	lw	s5,180(sp)
  4026e8:	8fb400b0 	lw	s4,176(sp)
  4026ec:	8fb300ac 	lw	s3,172(sp)
  4026f0:	8fb200a8 	lw	s2,168(sp)
  4026f4:	8fb100a4 	lw	s1,164(sp)
  4026f8:	8fb000a0 	lw	s0,160(sp)
  4026fc:	03e00008 	jr	ra
  402700:	27bd00c8 	addiu	sp,sp,200
  402704:	00008025 	move	s0,zero
  402708:	3c140046 	lui	s4,0x46
  40270c:	1000ff51 	b	402454 <__dcigettext+0x1e4>
  402710:	26947690 	addiu	s4,s4,30352
  402714:	00002825 	move	a1,zero
  402718:	2739cc70 	addiu	t9,t9,-13200
  40271c:	04116954 	bal	41cc70 <__getcwd>
  402720:	00002025 	move	a0,zero
  402724:	8fdc0018 	lw	gp,24(s8)
  402728:	1040ffc0 	beqz	v0,40262c <__dcigettext+0x3bc>
  40272c:	0040b025 	move	s6,v0
  402730:	3c050046 	lui	a1,0x46
  402734:	3c190040 	lui	t9,0x40
  402738:	24a57670 	addiu	a1,a1,30320
  40273c:	27c40074 	addiu	a0,s8,116
  402740:	27397e30 	addiu	t9,t9,32304
  402744:	02803825 	move	a3,s4
  402748:	041115b9 	bal	407e30 <___asprintf>
  40274c:	00403025 	move	a2,v0
  402750:	02c02025 	move	a0,s6
  402754:	8fdc0018 	lw	gp,24(s8)
  402758:	8f99804c 	lw	t9,-32692(gp)
  40275c:	04115545 	bal	417c74 <__free>
  402760:	0040a025 	move	s4,v0
  402764:	0680ffb1 	bltz	s4,40262c <__dcigettext+0x3bc>
  402768:	8fdc0018 	lw	gp,24(s8)
  40276c:	1000ff39 	b	402454 <__dcigettext+0x1e4>
  402770:	8fd40074 	lw	s4,116(s8)
  402774:	3c190040 	lui	t9,0x40
  402778:	27396e60 	addiu	t9,t9,28256
  40277c:	041111b8 	bal	406e60 <getenv>
  402780:	24847678 	addiu	a0,a0,30328
  402784:	1040ff46 	beqz	v0,4024a0 <__dcigettext+0x230>
  402788:	00000000 	nop
  40278c:	80430000 	lb	v1,0(v0)
  402790:	1000ff43 	b	4024a0 <__dcigettext+0x230>
  402794:	0043a80b 	movn	s5,v0,v1
  402798:	1000ff79 	b	402580 <__dcigettext+0x310>
  40279c:	26b50001 	addiu	s5,s5,1
  4027a0:	02201825 	move	v1,s1
  4027a4:	26b50001 	addiu	s5,s5,1
  4027a8:	a0620000 	sb	v0,0(v1)
  4027ac:	82a20000 	lb	v0,0(s5)
  4027b0:	10400004 	beqz	v0,4027c4 <__dcigettext+0x554>
  4027b4:	24630001 	addiu	v1,v1,1
  4027b8:	1444fffb 	bne	v0,a0,4027a8 <__dcigettext+0x538>
  4027bc:	26b50001 	addiu	s5,s5,1
  4027c0:	26b5ffff 	addiu	s5,s5,-1
  4027c4:	8f828078 	lw	v0,-32648(gp)
  4027c8:	a0600000 	sb	zero,0(v1)
  4027cc:	8c420000 	lw	v0,0(v0)
  4027d0:	1040ff73 	beqz	v0,4025a0 <__dcigettext+0x330>
  4027d4:	8fd90040 	lw	t9,64(s8)
  4027d8:	2405002f 	li	a1,47
  4027dc:	0320f809 	jalr	t9
  4027e0:	02202025 	move	a0,s1
  4027e4:	1440ff66 	bnez	v0,402580 <__dcigettext+0x310>
  4027e8:	8fdc0018 	lw	gp,24(s8)
  4027ec:	1000ff6d 	b	4025a4 <__dcigettext+0x334>
  4027f0:	92220000 	lbu	v0,0(s1)
  4027f4:	8ee40010 	lw	a0,16(s7)
  4027f8:	1080ff61 	beqz	a0,402580 <__dcigettext+0x310>
  4027fc:	26e80014 	addiu	t0,s7,20
  402800:	afd50028 	sw	s5,40(s8)
  402804:	afd10024 	sw	s1,36(s8)
  402808:	0040a825 	move	s5,v0
  40280c:	afd7002c 	sw	s7,44(s8)
  402810:	0100b825 	move	s7,t0
  402814:	10000005 	b	40282c <__dcigettext+0x5bc>
  402818:	8fd10058 	lw	s1,88(s8)
  40281c:	8ee40000 	lw	a0,0(s7)
  402820:	26b50001 	addiu	s5,s5,1
  402824:	10800076 	beqz	a0,402a00 <__dcigettext+0x790>
  402828:	26f70004 	addiu	s7,s7,4
  40282c:	24070001 	li	a3,1
  402830:	afb10010 	sw	s1,16(sp)
  402834:	02603025 	move	a2,s3
  402838:	0c1005bc 	jal	4016f0 <_nl_find_msg>
  40283c:	02002825 	move	a1,s0
  402840:	2403ffff 	li	v1,-1
  402844:	1043ff79 	beq	v0,v1,40262c <__dcigettext+0x3bc>
  402848:	8fdc0018 	lw	gp,24(s8)
  40284c:	1040fff3 	beqz	v0,40281c <__dcigettext+0x5ac>
  402850:	00403825 	move	a3,v0
  402854:	8fd7002c 	lw	s7,44(s8)
  402858:	26a20004 	addiu	v0,s5,4
  40285c:	00021080 	sll	v0,v0,0x2
  402860:	02e21021 	addu	v0,s7,v0
  402864:	8c570000 	lw	s7,0(v0)
  402868:	8f99804c 	lw	t9,-32692(gp)
  40286c:	8fc40074 	lw	a0,116(s8)
  402870:	04115500 	bal	417c74 <__free>
  402874:	afc7006c 	sw	a3,108(s8)
  402878:	8fc20050 	lw	v0,80(s8)
  40287c:	8fdc0018 	lw	gp,24(s8)
  402880:	1040007e 	beqz	v0,402a7c <__dcigettext+0x80c>
  402884:	8fc7006c 	lw	a3,108(s8)
  402888:	8fc20050 	lw	v0,80(s8)
  40288c:	8f8380a8 	lw	v1,-32600(gp)
  402890:	8c420000 	lw	v0,0(v0)
  402894:	8c630000 	lw	v1,0(v1)
  402898:	ac43000c 	sw	v1,12(v0)
  40289c:	ac570010 	sw	s7,16(v0)
  4028a0:	ac470014 	sw	a3,20(v0)
  4028a4:	8fc30078 	lw	v1,120(s8)
  4028a8:	ac430018 	sw	v1,24(v0)
  4028ac:	7c03e83b 	rdhwr	v1,$29
  4028b0:	00601025 	move	v0,v1
  4028b4:	8fc30044 	lw	v1,68(s8)
  4028b8:	00621021 	addu	v0,v1,v0
  4028bc:	8fc30048 	lw	v1,72(s8)
  4028c0:	ac430000 	sw	v1,0(v0)
  4028c4:	8fc200d4 	lw	v0,212(s8)
  4028c8:	14400050 	bnez	v0,402a0c <__dcigettext+0x79c>
  4028cc:	8fc500d8 	lw	a1,216(s8)
  4028d0:	8fd0005c 	lw	s0,92(s8)
  4028d4:	1200ff79 	beqz	s0,4026bc <__dcigettext+0x44c>
  4028d8:	3c040049 	lui	a0,0x49
  4028dc:	8f998354 	lw	t9,-31916(gp)
  4028e0:	afc7006c 	sw	a3,108(s8)
  4028e4:	0320f809 	jalr	t9
  4028e8:	24845320 	addiu	a0,a0,21280
  4028ec:	8fdc0018 	lw	gp,24(s8)
  4028f0:	1200ff72 	beqz	s0,4026bc <__dcigettext+0x44c>
  4028f4:	8fc7006c 	lw	a3,108(s8)
  4028f8:	3c040049 	lui	a0,0x49
  4028fc:	8f998354 	lw	t9,-31916(gp)
  402900:	0320f809 	jalr	t9
  402904:	24845800 	addiu	a0,a0,22528
  402908:	8fdc0018 	lw	gp,24(s8)
  40290c:	1000ff6b 	b	4026bc <__dcigettext+0x44c>
  402910:	8fc7006c 	lw	a3,108(s8)
  402914:	1000fe8a 	b	402340 <__dcigettext+0xd0>
  402918:	8c523850 	lw	s2,14416(v0)
  40291c:	1000ff67 	b	4026bc <__dcigettext+0x44c>
  402920:	00003825 	move	a3,zero
  402924:	14600018 	bnez	v1,402988 <__dcigettext+0x718>
  402928:	8c470014 	lw	a3,20(v0)
  40292c:	8fd0005c 	lw	s0,92(s8)
  402930:	1200000e 	beqz	s0,40296c <__dcigettext+0x6fc>
  402934:	8f998354 	lw	t9,-31916(gp)
  402938:	3c040049 	lui	a0,0x49
  40293c:	afc7006c 	sw	a3,108(s8)
  402940:	0320f809 	jalr	t9
  402944:	24845320 	addiu	a0,a0,21280
  402948:	8fdc0018 	lw	gp,24(s8)
  40294c:	12000007 	beqz	s0,40296c <__dcigettext+0x6fc>
  402950:	8fc7006c 	lw	a3,108(s8)
  402954:	3c040049 	lui	a0,0x49
  402958:	8f998354 	lw	t9,-31916(gp)
  40295c:	0320f809 	jalr	t9
  402960:	24845800 	addiu	a0,a0,22528
  402964:	8fdc0018 	lw	gp,24(s8)
  402968:	8fc7006c 	lw	a3,108(s8)
  40296c:	7c03e83b 	rdhwr	v1,$29
  402970:	00601025 	move	v0,v1
  402974:	8fc30044 	lw	v1,68(s8)
  402978:	00621021 	addu	v0,v1,v0
  40297c:	8fc30048 	lw	v1,72(s8)
  402980:	1000ff4e 	b	4026bc <__dcigettext+0x44c>
  402984:	ac430000 	sw	v1,0(v0)
  402988:	8c430010 	lw	v1,16(v0)
  40298c:	8fc500d8 	lw	a1,216(s8)
  402990:	8c500018 	lw	s0,24(v0)
  402994:	afc7006c 	sw	a3,108(s8)
  402998:	8c710008 	lw	s1,8(v1)
  40299c:	0c100504 	jal	401410 <plural_eval>
  4029a0:	8e240060 	lw	a0,96(s1)
  4029a4:	8e230064 	lw	v1,100(s1)
  4029a8:	00409825 	move	s3,v0
  4029ac:	8fdc0018 	lw	gp,24(s8)
  4029b0:	0043182b 	sltu	v1,v0,v1
  4029b4:	1060ffdd 	beqz	v1,40292c <__dcigettext+0x6bc>
  4029b8:	8fc7006c 	lw	a3,108(s8)
  4029bc:	3c110042 	lui	s1,0x42
  4029c0:	2412ffff 	li	s2,-1
  4029c4:	2631b540 	addiu	s1,s1,-19136
  4029c8:	00f08021 	addu	s0,a3,s0
  4029cc:	00e02025 	move	a0,a3
  4029d0:	00e0a025 	move	s4,a3
  4029d4:	2673ffff 	addiu	s3,s3,-1
  4029d8:	12720081 	beq	s3,s2,402be0 <__dcigettext+0x970>
  4029dc:	0220c825 	move	t9,s1
  4029e0:	041162d7 	bal	41b540 <__rawmemchr>
  4029e4:	00002825 	move	a1,zero
  4029e8:	24440001 	addiu	a0,v0,1
  4029ec:	0090102b 	sltu	v0,a0,s0
  4029f0:	1440fff8 	bnez	v0,4029d4 <__dcigettext+0x764>
  4029f4:	8fdc0018 	lw	gp,24(s8)
  4029f8:	1000ffcc 	b	40292c <__dcigettext+0x6bc>
  4029fc:	02803825 	move	a3,s4
  402a00:	8fd50028 	lw	s5,40(s8)
  402a04:	1000fede 	b	402580 <__dcigettext+0x310>
  402a08:	8fd10024 	lw	s1,36(s8)
  402a0c:	8ef10008 	lw	s1,8(s7)
  402a10:	8fd00078 	lw	s0,120(s8)
  402a14:	afc7006c 	sw	a3,108(s8)
  402a18:	0c100504 	jal	401410 <plural_eval>
  402a1c:	8e240060 	lw	a0,96(s1)
  402a20:	8e230064 	lw	v1,100(s1)
  402a24:	00409825 	move	s3,v0
  402a28:	8fdc0018 	lw	gp,24(s8)
  402a2c:	0043182b 	sltu	v1,v0,v1
  402a30:	1060ffa7 	beqz	v1,4028d0 <__dcigettext+0x660>
  402a34:	8fc7006c 	lw	a3,108(s8)
  402a38:	3c110042 	lui	s1,0x42
  402a3c:	2412ffff 	li	s2,-1
  402a40:	2631b540 	addiu	s1,s1,-19136
  402a44:	00f08021 	addu	s0,a3,s0
  402a48:	00e02025 	move	a0,a3
  402a4c:	00e0a025 	move	s4,a3
  402a50:	2673ffff 	addiu	s3,s3,-1
  402a54:	12720067 	beq	s3,s2,402bf4 <__dcigettext+0x984>
  402a58:	0220c825 	move	t9,s1
  402a5c:	041162b8 	bal	41b540 <__rawmemchr>
  402a60:	00002825 	move	a1,zero
  402a64:	24440001 	addiu	a0,v0,1
  402a68:	0090102b 	sltu	v0,a0,s0
  402a6c:	1440fff8 	bnez	v0,402a50 <__dcigettext+0x7e0>
  402a70:	8fdc0018 	lw	gp,24(s8)
  402a74:	1000ff96 	b	4028d0 <__dcigettext+0x660>
  402a78:	02803825 	move	a3,s4
  402a7c:	8fd9004c 	lw	t9,76(s8)
  402a80:	0320f809 	jalr	t9
  402a84:	02602025 	move	a0,s3
  402a88:	8fd5003c 	lw	s5,60(s8)
  402a8c:	24500001 	addiu	s0,v0,1
  402a90:	8fd9004c 	lw	t9,76(s8)
  402a94:	0320f809 	jalr	t9
  402a98:	02a02025 	move	a0,s5
  402a9c:	8fd40030 	lw	s4,48(s8)
  402aa0:	8fdc0018 	lw	gp,24(s8)
  402aa4:	2683001e 	addiu	v1,s4,30
  402aa8:	00621821 	addu	v1,v1,v0
  402aac:	8f9980a4 	lw	t9,-32604(gp)
  402ab0:	0411529d 	bal	417528 <__libc_malloc>
  402ab4:	00702021 	addu	a0,v1,s0
  402ab8:	8fdc0018 	lw	gp,24(s8)
  402abc:	00408825 	move	s1,v0
  402ac0:	1040ff7a 	beqz	v0,4028ac <__dcigettext+0x63c>
  402ac4:	8fc7006c 	lw	a3,108(s8)
  402ac8:	8f998088 	lw	t9,-32632(gp)
  402acc:	2444001c 	addiu	a0,v0,28
  402ad0:	02003025 	move	a2,s0
  402ad4:	04116072 	bal	41aca0 <memcpy>
  402ad8:	02602825 	move	a1,s3
  402adc:	26930001 	addiu	s3,s4,1
  402ae0:	8fdc0018 	lw	gp,24(s8)
  402ae4:	00508021 	addu	s0,v0,s0
  402ae8:	02402825 	move	a1,s2
  402aec:	02002025 	move	a0,s0
  402af0:	8f998088 	lw	t9,-32632(gp)
  402af4:	0411606a 	bal	41aca0 <memcpy>
  402af8:	02603025 	move	a2,s3
  402afc:	3c190042 	lui	t9,0x42
  402b00:	02132021 	addu	a0,s0,s3
  402b04:	273998b0 	addiu	t9,t9,-26448
  402b08:	04115b69 	bal	4198b0 <strcpy>
  402b0c:	02a02825 	move	a1,s5
  402b10:	8fc300dc 	lw	v1,220(s8)
  402b14:	00402025 	move	a0,v0
  402b18:	8fdc0018 	lw	gp,24(s8)
  402b1c:	8fc7006c 	lw	a3,108(s8)
  402b20:	ae230004 	sw	v1,4(s1)
  402b24:	8fc30078 	lw	v1,120(s8)
  402b28:	8f828374 	lw	v0,-31884(gp)
  402b2c:	ae300000 	sw	s0,0(s1)
  402b30:	ae230018 	sw	v1,24(s1)
  402b34:	8f8380a8 	lw	v1,-32600(gp)
  402b38:	ae240008 	sw	a0,8(s1)
  402b3c:	ae370010 	sw	s7,16(s1)
  402b40:	ae270014 	sw	a3,20(s1)
  402b44:	8c630000 	lw	v1,0(v1)
  402b48:	10400006 	beqz	v0,402b64 <__dcigettext+0x8f4>
  402b4c:	ae23000c 	sw	v1,12(s1)
  402b50:	3c040049 	lui	a0,0x49
  402b54:	8f998374 	lw	t9,-31884(gp)
  402b58:	0320f809 	jalr	t9
  402b5c:	24845360 	addiu	a0,a0,21344
  402b60:	8fc7006c 	lw	a3,108(s8)
  402b64:	8fc20034 	lw	v0,52(s8)
  402b68:	3c190042 	lui	t9,0x42
  402b6c:	afc7006c 	sw	a3,108(s8)
  402b70:	02202025 	move	a0,s1
  402b74:	2739e0c0 	addiu	t9,t9,-8000
  402b78:	2446163c 	addiu	a2,v0,5692
  402b7c:	8fc20038 	lw	v0,56(s8)
  402b80:	04116d4f 	bal	41e0c0 <__tsearch>
  402b84:	2445535c 	addiu	a1,v0,21340
  402b88:	00408025 	move	s0,v0
  402b8c:	8fc2005c 	lw	v0,92(s8)
  402b90:	8fdc0018 	lw	gp,24(s8)
  402b94:	10400007 	beqz	v0,402bb4 <__dcigettext+0x944>
  402b98:	8fc7006c 	lw	a3,108(s8)
  402b9c:	3c040049 	lui	a0,0x49
  402ba0:	8f998354 	lw	t9,-31916(gp)
  402ba4:	0320f809 	jalr	t9
  402ba8:	24845360 	addiu	a0,a0,21344
  402bac:	8fdc0018 	lw	gp,24(s8)
  402bb0:	8fc7006c 	lw	a3,108(s8)
  402bb4:	12000004 	beqz	s0,402bc8 <__dcigettext+0x958>
  402bb8:	8f99804c 	lw	t9,-32692(gp)
  402bbc:	8e020000 	lw	v0,0(s0)
  402bc0:	1051ff3a 	beq	v0,s1,4028ac <__dcigettext+0x63c>
  402bc4:	00000000 	nop
  402bc8:	02202025 	move	a0,s1
  402bcc:	04115429 	bal	417c74 <__free>
  402bd0:	afc7006c 	sw	a3,108(s8)
  402bd4:	8fdc0018 	lw	gp,24(s8)
  402bd8:	1000ff34 	b	4028ac <__dcigettext+0x63c>
  402bdc:	8fc7006c 	lw	a3,108(s8)
  402be0:	1000ff52 	b	40292c <__dcigettext+0x6bc>
  402be4:	00803825 	move	a3,a0
  402be8:	8f998054 	lw	t9,-32684(gp)
  402bec:	04117230 	bal	41f4b0 <__stack_chk_fail>
  402bf0:	00000000 	nop
  402bf4:	1000ff36 	b	4028d0 <__dcigettext+0x660>
  402bf8:	00803825 	move	a3,a0
  402bfc:	00000000 	nop

00402c00 <_nl_find_domain>:
  402c00:	3c1c004a 	lui	gp,0x4a
  402c04:	27bdff80 	addiu	sp,sp,-128
  402c08:	279ccae0 	addiu	gp,gp,-13600
  402c0c:	afb5006c 	sw	s5,108(sp)
  402c10:	8f958038 	lw	s5,-32712(gp)
  402c14:	8f838368 	lw	v1,-31896(gp)
  402c18:	afb40068 	sw	s4,104(sp)
  402c1c:	00e0a025 	move	s4,a3
  402c20:	afb30064 	sw	s3,100(sp)
  402c24:	00c09825 	move	s3,a2
  402c28:	afb1005c 	sw	s1,92(sp)
  402c2c:	00a08825 	move	s1,a1
  402c30:	afb00058 	sw	s0,88(sp)
  402c34:	00808025 	move	s0,a0
  402c38:	afbf007c 	sw	ra,124(sp)
  402c3c:	afbe0078 	sw	s8,120(sp)
  402c40:	afb70074 	sw	s7,116(sp)
  402c44:	afb60070 	sw	s6,112(sp)
  402c48:	afb20060 	sw	s2,96(sp)
  402c4c:	afbc0030 	sw	gp,48(sp)
  402c50:	8ea80000 	lw	t0,0(s5)
  402c54:	afa80054 	sw	t0,84(sp)
  402c58:	10600005 	beqz	v1,402c70 <_nl_find_domain+0x70>
  402c5c:	3c040049 	lui	a0,0x49
  402c60:	8f998368 	lw	t9,-31896(gp)
  402c64:	0320f809 	jalr	t9
  402c68:	24845380 	addiu	a0,a0,21376
  402c6c:	8fbc0030 	lw	gp,48(sp)
  402c70:	3c120042 	lui	s2,0x42
  402c74:	8f968354 	lw	s6,-31916(gp)
  402c78:	02002025 	move	a0,s0
  402c7c:	26529b70 	addiu	s2,s2,-25744
  402c80:	0240c825 	move	t9,s2
  402c84:	04115bba 	bal	419b70 <strlen>
  402c88:	3c170049 	lui	s7,0x49
  402c8c:	00003825 	move	a3,zero
  402c90:	8fbc0030 	lw	gp,48(sp)
  402c94:	24460001 	addiu	a2,v0,1
  402c98:	26e453a0 	addiu	a0,s7,21408
  402c9c:	afa00028 	sw	zero,40(sp)
  402ca0:	afb30024 	sw	s3,36(sp)
  402ca4:	02002825 	move	a1,s0
  402ca8:	afa00020 	sw	zero,32(sp)
  402cac:	afa0001c 	sw	zero,28(sp)
  402cb0:	afa00018 	sw	zero,24(sp)
  402cb4:	afa00014 	sw	zero,20(sp)
  402cb8:	8f9980b0 	lw	t9,-32592(gp)
  402cbc:	041108b8 	bal	404fa0 <_nl_make_l10nflist>
  402cc0:	afb10010 	sw	s1,16(sp)
  402cc4:	8fbc0030 	lw	gp,48(sp)
  402cc8:	12c00006 	beqz	s6,402ce4 <_nl_find_domain+0xe4>
  402ccc:	0040f025 	move	s8,v0
  402cd0:	3c040049 	lui	a0,0x49
  402cd4:	8f998354 	lw	t9,-31916(gp)
  402cd8:	0320f809 	jalr	t9
  402cdc:	24845380 	addiu	a0,a0,21376
  402ce0:	8fbc0030 	lw	gp,48(sp)
  402ce4:	13c00032 	beqz	s8,402db0 <_nl_find_domain+0x1b0>
  402ce8:	8f9980b4 	lw	t9,-32588(gp)
  402cec:	8fc20004 	lw	v0,4(s8)
  402cf0:	18400029 	blez	v0,402d98 <_nl_find_domain+0x198>
  402cf4:	3c190040 	lui	t9,0x40
  402cf8:	8fc20008 	lw	v0,8(s8)
  402cfc:	10400011 	beqz	v0,402d44 <_nl_find_domain+0x144>
  402d00:	00000000 	nop
  402d04:	8fa40054 	lw	a0,84(sp)
  402d08:	8ea20000 	lw	v0,0(s5)
  402d0c:	148200a2 	bne	a0,v0,402f98 <_nl_find_domain+0x398>
  402d10:	8fbf007c 	lw	ra,124(sp)
  402d14:	03c01025 	move	v0,s8
  402d18:	8fbe0078 	lw	s8,120(sp)
  402d1c:	8fb70074 	lw	s7,116(sp)
  402d20:	8fb60070 	lw	s6,112(sp)
  402d24:	8fb5006c 	lw	s5,108(sp)
  402d28:	8fb40068 	lw	s4,104(sp)
  402d2c:	8fb30064 	lw	s3,100(sp)
  402d30:	8fb20060 	lw	s2,96(sp)
  402d34:	8fb1005c 	lw	s1,92(sp)
  402d38:	8fb00058 	lw	s0,88(sp)
  402d3c:	03e00008 	jr	ra
  402d40:	27bd0080 	addiu	sp,sp,128
  402d44:	8fc40010 	lw	a0,16(s8)
  402d48:	1080ffee 	beqz	a0,402d04 <_nl_find_domain+0x104>
  402d4c:	00000000 	nop
  402d50:	3c110040 	lui	s1,0x40
  402d54:	27d00010 	addiu	s0,s8,16
  402d58:	10000008 	b	402d7c <_nl_find_domain+0x17c>
  402d5c:	26312fb0 	addiu	s1,s1,12208
  402d60:	8e020000 	lw	v0,0(s0)
  402d64:	8c420008 	lw	v0,8(v0)
  402d68:	1440ffe6 	bnez	v0,402d04 <_nl_find_domain+0x104>
  402d6c:	00000000 	nop
  402d70:	8e040004 	lw	a0,4(s0)
  402d74:	1080ffe3 	beqz	a0,402d04 <_nl_find_domain+0x104>
  402d78:	26100004 	addiu	s0,s0,4
  402d7c:	8c820004 	lw	v0,4(a0)
  402d80:	1c40fff7 	bgtz	v0,402d60 <_nl_find_domain+0x160>
  402d84:	0220c825 	move	t9,s1
  402d88:	04110089 	bal	402fb0 <_nl_load_domain>
  402d8c:	02802825 	move	a1,s4
  402d90:	1000fff3 	b	402d60 <_nl_find_domain+0x160>
  402d94:	8fbc0030 	lw	gp,48(sp)
  402d98:	02802825 	move	a1,s4
  402d9c:	27392fb0 	addiu	t9,t9,12208
  402da0:	04110083 	bal	402fb0 <_nl_load_domain>
  402da4:	03c02025 	move	a0,s8
  402da8:	1000ffd3 	b	402cf8 <_nl_find_domain+0xf8>
  402dac:	8fbc0030 	lw	gp,48(sp)
  402db0:	041107d2 	bal	404cfc <_nl_expand_alias>
  402db4:	02202025 	move	a0,s1
  402db8:	8fbc0030 	lw	gp,48(sp)
  402dbc:	10400013 	beqz	v0,402e0c <_nl_find_domain+0x20c>
  402dc0:	afa20038 	sw	v0,56(sp)
  402dc4:	0240c825 	move	t9,s2
  402dc8:	04115b69 	bal	419b70 <strlen>
  402dcc:	00402025 	move	a0,v0
  402dd0:	8fbc0030 	lw	gp,48(sp)
  402dd4:	24460001 	addiu	a2,v0,1
  402dd8:	00c02025 	move	a0,a2
  402ddc:	8f9980a4 	lw	t9,-32604(gp)
  402de0:	041151d1 	bal	417528 <__libc_malloc>
  402de4:	afa6003c 	sw	a2,60(sp)
  402de8:	8fbc0030 	lw	gp,48(sp)
  402dec:	1040ffc5 	beqz	v0,402d04 <_nl_find_domain+0x104>
  402df0:	00408825 	move	s1,v0
  402df4:	8f998088 	lw	t9,-32632(gp)
  402df8:	00402025 	move	a0,v0
  402dfc:	8fa6003c 	lw	a2,60(sp)
  402e00:	04115fa7 	bal	41aca0 <memcpy>
  402e04:	8fa50038 	lw	a1,56(sp)
  402e08:	8fbc0030 	lw	gp,48(sp)
  402e0c:	27a20050 	addiu	v0,sp,80
  402e10:	8f9980b8 	lw	t9,-32584(gp)
  402e14:	27a70048 	addiu	a3,sp,72
  402e18:	afa20014 	sw	v0,20(sp)
  402e1c:	27a2004c 	addiu	v0,sp,76
  402e20:	27a60044 	addiu	a2,sp,68
  402e24:	27a50040 	addiu	a1,sp,64
  402e28:	afa20010 	sw	v0,16(sp)
  402e2c:	04110a3c 	bal	405720 <_nl_explode_name>
  402e30:	02202025 	move	a0,s1
  402e34:	2404ffff 	li	a0,-1
  402e38:	8fbc0030 	lw	gp,48(sp)
  402e3c:	1044ffb1 	beq	v0,a0,402d04 <_nl_find_domain+0x104>
  402e40:	afa2003c 	sw	v0,60(sp)
  402e44:	8f828374 	lw	v0,-31884(gp)
  402e48:	10400004 	beqz	v0,402e5c <_nl_find_domain+0x25c>
  402e4c:	3c040049 	lui	a0,0x49
  402e50:	8f998374 	lw	t9,-31884(gp)
  402e54:	0320f809 	jalr	t9
  402e58:	24845380 	addiu	a0,a0,21376
  402e5c:	0240c825 	move	t9,s2
  402e60:	04115b43 	bal	419b70 <strlen>
  402e64:	02002025 	move	a0,s0
  402e68:	26e453a0 	addiu	a0,s7,21408
  402e6c:	24460001 	addiu	a2,v0,1
  402e70:	8fbc0030 	lw	gp,48(sp)
  402e74:	24020001 	li	v0,1
  402e78:	8fa7003c 	lw	a3,60(sp)
  402e7c:	02002825 	move	a1,s0
  402e80:	afb30024 	sw	s3,36(sp)
  402e84:	afa20028 	sw	v0,40(sp)
  402e88:	8fa20044 	lw	v0,68(sp)
  402e8c:	8f9980b0 	lw	t9,-32592(gp)
  402e90:	afa20020 	sw	v0,32(sp)
  402e94:	8fa20050 	lw	v0,80(sp)
  402e98:	afa2001c 	sw	v0,28(sp)
  402e9c:	8fa2004c 	lw	v0,76(sp)
  402ea0:	afa20018 	sw	v0,24(sp)
  402ea4:	8fa20048 	lw	v0,72(sp)
  402ea8:	afa20014 	sw	v0,20(sp)
  402eac:	8fa20040 	lw	v0,64(sp)
  402eb0:	0411083b 	bal	404fa0 <_nl_make_l10nflist>
  402eb4:	afa20010 	sw	v0,16(sp)
  402eb8:	8fbc0030 	lw	gp,48(sp)
  402ebc:	12c00006 	beqz	s6,402ed8 <_nl_find_domain+0x2d8>
  402ec0:	0040f025 	move	s8,v0
  402ec4:	3c040049 	lui	a0,0x49
  402ec8:	8f998354 	lw	t9,-31916(gp)
  402ecc:	0320f809 	jalr	t9
  402ed0:	24845380 	addiu	a0,a0,21376
  402ed4:	8fbc0030 	lw	gp,48(sp)
  402ed8:	13c0000e 	beqz	s8,402f14 <_nl_find_domain+0x314>
  402edc:	8fa2003c 	lw	v0,60(sp)
  402ee0:	8fc20004 	lw	v0,4(s8)
  402ee4:	18400026 	blez	v0,402f80 <_nl_find_domain+0x380>
  402ee8:	3c190040 	lui	t9,0x40
  402eec:	8fc20008 	lw	v0,8(s8)
  402ef0:	1040000f 	beqz	v0,402f30 <_nl_find_domain+0x330>
  402ef4:	00000000 	nop
  402ef8:	8fa20038 	lw	v0,56(sp)
  402efc:	10400004 	beqz	v0,402f10 <_nl_find_domain+0x310>
  402f00:	8f99804c 	lw	t9,-32692(gp)
  402f04:	0411535b 	bal	417c74 <__free>
  402f08:	02202025 	move	a0,s1
  402f0c:	8fbc0030 	lw	gp,48(sp)
  402f10:	8fa2003c 	lw	v0,60(sp)
  402f14:	30420001 	andi	v0,v0,0x1
  402f18:	1040ff7a 	beqz	v0,402d04 <_nl_find_domain+0x104>
  402f1c:	8f99804c 	lw	t9,-32692(gp)
  402f20:	04115354 	bal	417c74 <__free>
  402f24:	8fa40050 	lw	a0,80(sp)
  402f28:	1000ff76 	b	402d04 <_nl_find_domain+0x104>
  402f2c:	8fbc0030 	lw	gp,48(sp)
  402f30:	8fc40010 	lw	a0,16(s8)
  402f34:	1080fff0 	beqz	a0,402ef8 <_nl_find_domain+0x2f8>
  402f38:	3c120040 	lui	s2,0x40
  402f3c:	27d00010 	addiu	s0,s8,16
  402f40:	10000008 	b	402f64 <_nl_find_domain+0x364>
  402f44:	26522fb0 	addiu	s2,s2,12208
  402f48:	8e020000 	lw	v0,0(s0)
  402f4c:	8c420008 	lw	v0,8(v0)
  402f50:	1440ffea 	bnez	v0,402efc <_nl_find_domain+0x2fc>
  402f54:	8fa20038 	lw	v0,56(sp)
  402f58:	8e040004 	lw	a0,4(s0)
  402f5c:	1080ffe7 	beqz	a0,402efc <_nl_find_domain+0x2fc>
  402f60:	26100004 	addiu	s0,s0,4
  402f64:	8c820004 	lw	v0,4(a0)
  402f68:	1c40fff7 	bgtz	v0,402f48 <_nl_find_domain+0x348>
  402f6c:	0240c825 	move	t9,s2
  402f70:	0411000f 	bal	402fb0 <_nl_load_domain>
  402f74:	02802825 	move	a1,s4
  402f78:	1000fff3 	b	402f48 <_nl_find_domain+0x348>
  402f7c:	8fbc0030 	lw	gp,48(sp)
  402f80:	02802825 	move	a1,s4
  402f84:	27392fb0 	addiu	t9,t9,12208
  402f88:	04110009 	bal	402fb0 <_nl_load_domain>
  402f8c:	03c02025 	move	a0,s8
  402f90:	1000ffd6 	b	402eec <_nl_find_domain+0x2ec>
  402f94:	8fbc0030 	lw	gp,48(sp)
  402f98:	8f998054 	lw	t9,-32684(gp)
  402f9c:	04117144 	bal	41f4b0 <__stack_chk_fail>
  402fa0:	00000000 	nop
	...

00402fb0 <_nl_load_domain>:
  402fb0:	3c1c004a 	lui	gp,0x4a
  402fb4:	27bdfe98 	addiu	sp,sp,-360
  402fb8:	279ccae0 	addiu	gp,gp,-13600
  402fbc:	afb60158 	sw	s6,344(sp)
  402fc0:	8f968038 	lw	s6,-32712(gp)
  402fc4:	afb00140 	sw	s0,320(sp)
  402fc8:	00808025 	move	s0,a0
  402fcc:	afbf0164 	sw	ra,356(sp)
  402fd0:	afbe0160 	sw	s8,352(sp)
  402fd4:	afb7015c 	sw	s7,348(sp)
  402fd8:	afb50154 	sw	s5,340(sp)
  402fdc:	afb40150 	sw	s4,336(sp)
  402fe0:	afb3014c 	sw	s3,332(sp)
  402fe4:	afb20148 	sw	s2,328(sp)
  402fe8:	afb10144 	sw	s1,324(sp)
  402fec:	afbc0018 	sw	gp,24(sp)
  402ff0:	afa50020 	sw	a1,32(sp)
  402ff4:	8ec20000 	lw	v0,0(s6)
  402ff8:	afa2013c 	sw	v0,316(sp)
  402ffc:	7c03e83b 	rdhwr	v1,$29
  403000:	3c110049 	lui	s1,0x49
  403004:	24728b70 	addiu	s2,v1,-29840
  403008:	263e53b4 	addiu	s8,s1,21428
  40300c:	8fc20008 	lw	v0,8(s8)
  403010:	1052000c 	beq	v0,s2,403044 <_nl_load_domain+0x94>
  403014:	00000000 	nop
  403018:	c22353b4 	ll	v1,21428(s1)
  40301c:	14600006 	bnez	v1,403038 <_nl_load_domain+0x88>
  403020:	24020000 	li	v0,0
  403024:	24010001 	li	at,1
  403028:	e22153b4 	sc	at,21428(s1)
  40302c:	1020fffa 	beqz	at,403018 <_nl_load_domain+0x68>
  403030:	24020001 	li	v0,1
  403034:	0000000f 	sync
  403038:	104000dc 	beqz	v0,4033ac <_nl_load_domain+0x3fc>
  40303c:	3c190041 	lui	t9,0x41
  403040:	afd20008 	sw	s2,8(s8)
  403044:	8fc20004 	lw	v0,4(s8)
  403048:	8e030004 	lw	v1,4(s0)
  40304c:	24440001 	addiu	a0,v0,1
  403050:	146000b3 	bnez	v1,403320 <_nl_load_domain+0x370>
  403054:	afc40004 	sw	a0,4(s8)
  403058:	8e040000 	lw	a0,0(s0)
  40305c:	2413ffff 	li	s3,-1
  403060:	ae000008 	sw	zero,8(s0)
  403064:	108000ac 	beqz	a0,403318 <_nl_load_domain+0x368>
  403068:	ae130004 	sw	s3,4(s0)
  40306c:	3c190042 	lui	t9,0x42
  403070:	2739d670 	addiu	t9,t9,-10640
  403074:	0411697e 	bal	41d670 <__open_nocancel>
  403078:	00002825 	move	a1,zero
  40307c:	8fbc0018 	lw	gp,24(sp)
  403080:	105300a3 	beq	v0,s3,403310 <_nl_load_domain+0x360>
  403084:	0040b825 	move	s7,v0
  403088:	3c190042 	lui	t9,0x42
  40308c:	27a60098 	addiu	a2,sp,152
  403090:	24040003 	li	a0,3
  403094:	2739c840 	addiu	t9,t9,-14272
  403098:	041165e9 	bal	41c840 <___fxstat64>
  40309c:	00402825 	move	a1,v0
  4030a0:	14400096 	bnez	v0,4032fc <_nl_load_domain+0x34c>
  4030a4:	00409025 	move	s2,v0
  4030a8:	8fa200d0 	lw	v0,208(sp)
  4030ac:	14400093 	bnez	v0,4032fc <_nl_load_domain+0x34c>
  4030b0:	8fb500d4 	lw	s5,212(sp)
  4030b4:	2ea20030 	sltiu	v0,s5,48
  4030b8:	14400090 	bnez	v0,4032fc <_nl_load_domain+0x34c>
  4030bc:	3c190042 	lui	t9,0x42
  4030c0:	afa00014 	sw	zero,20(sp)
  4030c4:	24070002 	li	a3,2
  4030c8:	afb70010 	sw	s7,16(sp)
  4030cc:	24060001 	li	a2,1
  4030d0:	00002025 	move	a0,zero
  4030d4:	2739dab0 	addiu	t9,t9,-9552
  4030d8:	04116a75 	bal	41dab0 <__mmap>
  4030dc:	02a02825 	move	a1,s5
  4030e0:	8fbc0018 	lw	gp,24(sp)
  4030e4:	105300b6 	beq	v0,s3,4033c0 <_nl_load_domain+0x410>
  4030e8:	0040a025 	move	s4,v0
  4030ec:	3c190042 	lui	t9,0x42
  4030f0:	02e02025 	move	a0,s7
  4030f4:	2739d480 	addiu	t9,t9,-11136
  4030f8:	041168e1 	bal	41d480 <__close_nocancel>
  4030fc:	24130001 	li	s3,1
  403100:	3c029504 	lui	v0,0x9504
  403104:	8e830000 	lw	v1,0(s4)
  403108:	244212de 	addiu	v0,v0,4830
  40310c:	1462016c 	bne	v1,v0,4036c0 <_nl_load_domain+0x710>
  403110:	8fbc0018 	lw	gp,24(sp)
  403114:	8f9980a4 	lw	t9,-32604(gp)
  403118:	04115103 	bal	417528 <__libc_malloc>
  40311c:	24040068 	li	a0,104
  403120:	8fbc0018 	lw	gp,24(sp)
  403124:	1040007a 	beqz	v0,403310 <_nl_load_domain+0x360>
  403128:	0040b825 	move	s7,v0
  40312c:	8e820004 	lw	v0,4(s4)
  403130:	ae170008 	sw	s7,8(s0)
  403134:	aef40000 	sw	s4,0(s7)
  403138:	00022403 	sra	a0,v0,0x10
  40313c:	aef30004 	sw	s3,4(s7)
  403140:	aef50008 	sw	s5,8(s7)
  403144:	2c840002 	sltiu	a0,a0,2
  403148:	aee0000c 	sw	zero,12(s7)
  40314c:	10800116 	beqz	a0,4035a8 <_nl_load_domain+0x5f8>
  403150:	aee00010 	sw	zero,16(s7)
  403154:	8e85000c 	lw	a1,12(s4)
  403158:	3042ffff 	andi	v0,v0,0xffff
  40315c:	8e840010 	lw	a0,16(s4)
  403160:	8e870014 	lw	a3,20(s4)
  403164:	8e8a0008 	lw	t2,8(s4)
  403168:	02852821 	addu	a1,s4,a1
  40316c:	02842021 	addu	a0,s4,a0
  403170:	2ce60003 	sltiu	a2,a3,3
  403174:	aee50018 	sw	a1,24(s7)
  403178:	aeea0014 	sw	t2,20(s7)
  40317c:	aee4001c 	sw	a0,28(s7)
  403180:	14c000e3 	bnez	a2,403510 <_nl_load_domain+0x560>
  403184:	aee7002c 	sw	a3,44(s7)
  403188:	8e840018 	lw	a0,24(s4)
  40318c:	aee00034 	sw	zero,52(s7)
  403190:	02841821 	addu	v1,s4,a0
  403194:	afa30044 	sw	v1,68(sp)
  403198:	104000e0 	beqz	v0,40351c <_nl_load_domain+0x56c>
  40319c:	aee30030 	sw	v1,48(s7)
  4031a0:	8e820024 	lw	v0,36(s4)
  4031a4:	104000dd 	beqz	v0,40351c <_nl_load_domain+0x56c>
  4031a8:	afa20034 	sw	v0,52(sp)
  4031ac:	3c0a9504 	lui	t2,0x9504
  4031b0:	8e86001c 	lw	a2,28(s4)
  4031b4:	8e920020 	lw	s2,32(s4)
  4031b8:	254a12de 	addiu	t2,t2,4830
  4031bc:	8f998058 	lw	t9,-32680(gp)
  4031c0:	24050004 	li	a1,4
  4031c4:	afa7002c 	sw	a3,44(sp)
  4031c8:	00c02025 	move	a0,a2
  4031cc:	afaa0028 	sw	t2,40(sp)
  4031d0:	02929021 	addu	s2,s4,s2
  4031d4:	041154b3 	bal	4184a4 <__calloc>
  4031d8:	afa60024 	sw	a2,36(sp)
  4031dc:	8fbc0018 	lw	gp,24(sp)
  4031e0:	8fa60024 	lw	a2,36(sp)
  4031e4:	8faa0028 	lw	t2,40(sp)
  4031e8:	8fa7002c 	lw	a3,44(sp)
  4031ec:	104000ed 	beqz	v0,4035a4 <_nl_load_domain+0x5f4>
  4031f0:	afa20038 	sw	v0,56(sp)
  4031f4:	10c00147 	beqz	a2,403714 <_nl_load_domain+0x764>
  4031f8:	3c020047 	lui	v0,0x47
  4031fc:	8fa40038 	lw	a0,56(sp)
  403200:	3c0b0046 	lui	t3,0x46
  403204:	24429648 	addiu	v0,v0,-27064
  403208:	3c0e0048 	lui	t6,0x48
  40320c:	afa20024 	sw	v0,36(sp)
  403210:	3c020046 	lui	v0,0x46
  403214:	3c0d0046 	lui	t5,0x46
  403218:	244276b8 	addiu	v0,v0,30392
  40321c:	3c1f0046 	lui	ra,0x46
  403220:	afa20028 	sw	v0,40(sp)
  403224:	3c020047 	lui	v0,0x47
  403228:	00002825 	move	a1,zero
  40322c:	24429a2c 	addiu	v0,v0,-26068
  403230:	256b76d0 	addiu	t3,t3,30416
  403234:	afa2002c 	sw	v0,44(sp)
  403238:	3c020048 	lui	v0,0x48
  40323c:	25cea168 	addiu	t6,t6,-24216
  403240:	244392d0 	addiu	v1,v0,-27952
  403244:	3c020046 	lui	v0,0x46
  403248:	25ad76b4 	addiu	t5,t5,30388
  40324c:	244976c4 	addiu	t1,v0,30404
  403250:	3c020046 	lui	v0,0x46
  403254:	27ff76c0 	addiu	ra,ra,30400
  403258:	244876b0 	addiu	t0,v0,30384
  40325c:	3c020046 	lui	v0,0x46
  403260:	10000018 	b	4032c4 <_nl_load_domain+0x314>
  403264:	afa20030 	sw	v0,48(sp)
  403268:	7c0210a0 	wsbh	v0,v0
  40326c:	7c0c60a0 	wsbh	t4,t4
  403270:	00221402 	ror	v0,v0,0x10
  403274:	002c6402 	ror	t4,t4,0x10
  403278:	02821021 	addu	v0,s4,v0
  40327c:	11800108 	beqz	t4,4036a0 <_nl_load_domain+0x6f0>
  403280:	004c6021 	addu	t4,v0,t4
  403284:	818cffff 	lb	t4,-1(t4)
  403288:	15800105 	bnez	t4,4036a0 <_nl_load_domain+0x6f0>
  40328c:	240f0050 	li	t7,80
  403290:	804c0000 	lb	t4,0(v0)
  403294:	118f00dc 	beq	t4,t7,403608 <_nl_load_domain+0x658>
  403298:	240f0049 	li	t7,73
  40329c:	158f0106 	bne	t4,t7,4036b8 <_nl_load_domain+0x708>
  4032a0:	00000000 	nop
  4032a4:	804c0001 	lb	t4,1(v0)
  4032a8:	01601025 	move	v0,t3
  4032ac:	000c100b 	movn	v0,zero,t4
  4032b0:	24a50001 	addiu	a1,a1,1
  4032b4:	ac820000 	sw	v0,0(a0)
  4032b8:	26520008 	addiu	s2,s2,8
  4032bc:	10a60115 	beq	a1,a2,403714 <_nl_load_domain+0x764>
  4032c0:	24840004 	addiu	a0,a0,4
  4032c4:	3c0f9504 	lui	t7,0x9504
  4032c8:	8e420004 	lw	v0,4(s2)
  4032cc:	25ef12de 	addiu	t7,t7,4830
  4032d0:	154fffe5 	bne	t2,t7,403268 <_nl_load_domain+0x2b8>
  4032d4:	8e4c0000 	lw	t4,0(s2)
  4032d8:	1000ffe8 	b	40327c <_nl_load_domain+0x2cc>
  4032dc:	02821021 	addu	v0,s4,v0
  4032e0:	14430005 	bne	v0,v1,4032f8 <_nl_load_domain+0x348>
  4032e4:	8fa20028 	lw	v0,40(sp)
  4032e8:	24030004 	li	v1,4
  4032ec:	8c420000 	lw	v0,0(v0)
  4032f0:	10430046 	beq	v0,v1,40340c <_nl_load_domain+0x45c>
  4032f4:	8fb90024 	lw	t9,36(sp)
  4032f8:	0240b825 	move	s7,s2
  4032fc:	3c190042 	lui	t9,0x42
  403300:	2739d480 	addiu	t9,t9,-11136
  403304:	0411685e 	bal	41d480 <__close_nocancel>
  403308:	02e02025 	move	a0,s7
  40330c:	8fbc0018 	lw	gp,24(sp)
  403310:	8fc20004 	lw	v0,4(s8)
  403314:	2442ffff 	addiu	v0,v0,-1
  403318:	24030001 	li	v1,1
  40331c:	ae030004 	sw	v1,4(s0)
  403320:	10400011 	beqz	v0,403368 <_nl_load_domain+0x3b8>
  403324:	afc20004 	sw	v0,4(s8)
  403328:	8fa3013c 	lw	v1,316(sp)
  40332c:	8ec20000 	lw	v0,0(s6)
  403330:	1462039b 	bne	v1,v0,4041a0 <_nl_load_domain+0x11f0>
  403334:	8f998054 	lw	t9,-32684(gp)
  403338:	8fbf0164 	lw	ra,356(sp)
  40333c:	8fbe0160 	lw	s8,352(sp)
  403340:	8fb7015c 	lw	s7,348(sp)
  403344:	8fb60158 	lw	s6,344(sp)
  403348:	8fb50154 	lw	s5,340(sp)
  40334c:	8fb40150 	lw	s4,336(sp)
  403350:	8fb3014c 	lw	s3,332(sp)
  403354:	8fb20148 	lw	s2,328(sp)
  403358:	8fb10144 	lw	s1,324(sp)
  40335c:	8fb00140 	lw	s0,320(sp)
  403360:	03e00008 	jr	ra
  403364:	27bd0168 	addiu	sp,sp,360
  403368:	afc00008 	sw	zero,8(s8)
  40336c:	0000000f 	sync
  403370:	c22253b4 	ll	v0,21428(s1)
  403374:	24010000 	li	at,0
  403378:	e22153b4 	sc	at,21428(s1)
  40337c:	1020fffc 	beqz	at,403370 <_nl_load_domain+0x3c0>
  403380:	00000000 	nop
  403384:	28420002 	slti	v0,v0,2
  403388:	1440ffe7 	bnez	v0,403328 <_nl_load_domain+0x378>
  40338c:	24050081 	li	a1,129
  403390:	24060001 	li	a2,1
  403394:	00003825 	move	a3,zero
  403398:	03c02025 	move	a0,s8
  40339c:	2402108e 	li	v0,4238
  4033a0:	0000000c 	syscall
  4033a4:	1000ffe0 	b	403328 <_nl_load_domain+0x378>
  4033a8:	00000000 	nop
  4033ac:	27392170 	addiu	t9,t9,8560
  4033b0:	04113b6f 	bal	412170 <__lll_lock_wait_private>
  4033b4:	03c02025 	move	a0,s8
  4033b8:	1000ff21 	b	403040 <_nl_load_domain+0x90>
  4033bc:	8fbc0018 	lw	gp,24(sp)
  4033c0:	8f9980a4 	lw	t9,-32604(gp)
  4033c4:	04115058 	bal	417528 <__libc_malloc>
  4033c8:	02a02025 	move	a0,s5
  4033cc:	8fbc0018 	lw	gp,24(sp)
  4033d0:	1040ffca 	beqz	v0,4032fc <_nl_load_domain+0x34c>
  4033d4:	0040a025 	move	s4,v0
  4033d8:	3c130042 	lui	s3,0x42
  4033dc:	afb2002c 	sw	s2,44(sp)
  4033e0:	7c03e83b 	rdhwr	v1,$29
  4033e4:	00601025 	move	v0,v1
  4033e8:	2663d7e0 	addiu	v1,s3,-10272
  4033ec:	02e09025 	move	s2,s7
  4033f0:	afa30024 	sw	v1,36(sp)
  4033f4:	0280b825 	move	s7,s4
  4033f8:	8f8383d0 	lw	v1,-31792(gp)
  4033fc:	02a09825 	move	s3,s5
  403400:	00621021 	addu	v0,v1,v0
  403404:	afa20028 	sw	v0,40(sp)
  403408:	8fb90024 	lw	t9,36(sp)
  40340c:	02603025 	move	a2,s3
  403410:	02e02825 	move	a1,s7
  403414:	0320f809 	jalr	t9
  403418:	02402025 	move	a0,s2
  40341c:	1840ffb0 	blez	v0,4032e0 <_nl_load_domain+0x330>
  403420:	2403ffff 	li	v1,-1
  403424:	02629823 	subu	s3,s3,v0
  403428:	1660fff7 	bnez	s3,403408 <_nl_load_domain+0x458>
  40342c:	02e2b821 	addu	s7,s7,v0
  403430:	3c190042 	lui	t9,0x42
  403434:	0240b825 	move	s7,s2
  403438:	8fb2002c 	lw	s2,44(sp)
  40343c:	2739d480 	addiu	t9,t9,-11136
  403440:	0411680f 	bal	41d480 <__close_nocancel>
  403444:	02e02025 	move	a0,s7
  403448:	3c029504 	lui	v0,0x9504
  40344c:	8e830000 	lw	v1,0(s4)
  403450:	244212de 	addiu	v0,v0,4830
  403454:	1062ff2f 	beq	v1,v0,403114 <_nl_load_domain+0x164>
  403458:	8fbc0018 	lw	gp,24(sp)
  40345c:	3c02de12 	lui	v0,0xde12
  403460:	24420495 	addiu	v0,v0,1173
  403464:	146202e4 	bne	v1,v0,403ff8 <_nl_load_domain+0x1048>
  403468:	8f99804c 	lw	t9,-32692(gp)
  40346c:	8f9980a4 	lw	t9,-32604(gp)
  403470:	0411502d 	bal	417528 <__libc_malloc>
  403474:	24040068 	li	a0,104
  403478:	8fbc0018 	lw	gp,24(sp)
  40347c:	1040ffa4 	beqz	v0,403310 <_nl_load_domain+0x360>
  403480:	0040b825 	move	s7,v0
  403484:	8e820004 	lw	v0,4(s4)
  403488:	240a0001 	li	t2,1
  40348c:	ae170008 	sw	s7,8(s0)
  403490:	aef40000 	sw	s4,0(s7)
  403494:	7c0210a0 	wsbh	v0,v0
  403498:	aef30004 	sw	s3,4(s7)
  40349c:	aef50008 	sw	s5,8(s7)
  4034a0:	00221402 	ror	v0,v0,0x10
  4034a4:	aeea000c 	sw	t2,12(s7)
  4034a8:	00022403 	sra	a0,v0,0x10
  4034ac:	2c840002 	sltiu	a0,a0,2
  4034b0:	1080003d 	beqz	a0,4035a8 <_nl_load_domain+0x5f8>
  4034b4:	aee00010 	sw	zero,16(s7)
  4034b8:	8e85000c 	lw	a1,12(s4)
  4034bc:	3042ffff 	andi	v0,v0,0xffff
  4034c0:	8e840010 	lw	a0,16(s4)
  4034c4:	8e870014 	lw	a3,20(s4)
  4034c8:	8e860008 	lw	a2,8(s4)
  4034cc:	7c0528a0 	wsbh	a1,a1
  4034d0:	7c0420a0 	wsbh	a0,a0
  4034d4:	7c0738a0 	wsbh	a3,a3
  4034d8:	7c0630a0 	wsbh	a2,a2
  4034dc:	00252c02 	ror	a1,a1,0x10
  4034e0:	00242402 	ror	a0,a0,0x10
  4034e4:	00273c02 	ror	a3,a3,0x10
  4034e8:	00263402 	ror	a2,a2,0x10
  4034ec:	02852821 	addu	a1,s4,a1
  4034f0:	aee7002c 	sw	a3,44(s7)
  4034f4:	02842021 	addu	a0,s4,a0
  4034f8:	aee60014 	sw	a2,20(s7)
  4034fc:	2ce60003 	sltiu	a2,a3,3
  403500:	aee50018 	sw	a1,24(s7)
  403504:	10c00046 	beqz	a2,403620 <_nl_load_domain+0x670>
  403508:	aee4001c 	sw	a0,28(s7)
  40350c:	24120001 	li	s2,1
  403510:	aee00030 	sw	zero,48(s7)
  403514:	14400023 	bnez	v0,4035a4 <_nl_load_domain+0x5f4>
  403518:	aef20034 	sw	s2,52(s7)
  40351c:	aee00020 	sw	zero,32(s7)
  403520:	aee00024 	sw	zero,36(s7)
  403524:	aee00028 	sw	zero,40(s7)
  403528:	8f828380 	lw	v0,-31872(gp)
  40352c:	aee00038 	sw	zero,56(s7)
  403530:	10400005 	beqz	v0,403548 <_nl_load_domain+0x598>
  403534:	aee0003c 	sw	zero,60(s7)
  403538:	8f998380 	lw	t9,-31872(gp)
  40353c:	00002825 	move	a1,zero
  403540:	0320f809 	jalr	t9
  403544:	26e40040 	addiu	a0,s7,64
  403548:	3c060048 	lui	a2,0x48
  40354c:	8fa50020 	lw	a1,32(sp)
  403550:	3c190040 	lui	t9,0x40
  403554:	27a2008c 	addiu	v0,sp,140
  403558:	00003825 	move	a3,zero
  40355c:	24c6a4ec 	addiu	a2,a2,-23316
  403560:	afa20010 	sw	v0,16(sp)
  403564:	273916f0 	addiu	t9,t9,5872
  403568:	0411f861 	bal	4016f0 <_nl_find_msg>
  40356c:	02002025 	move	a0,s0
  403570:	2405ffff 	li	a1,-1
  403574:	8fbc0018 	lw	gp,24(sp)
  403578:	1045005e 	beq	v0,a1,4036f4 <_nl_load_domain+0x744>
  40357c:	00402025 	move	a0,v0
  403580:	3c190040 	lui	t9,0x40
  403584:	26e60064 	addiu	a2,s7,100
  403588:	273963d0 	addiu	t9,t9,25552
  40358c:	04110b90 	bal	4063d0 <__gettext_extract_plural>
  403590:	26e50060 	addiu	a1,s7,96
  403594:	8fc20004 	lw	v0,4(s8)
  403598:	8fbc0018 	lw	gp,24(sp)
  40359c:	1000ff5e 	b	403318 <_nl_load_domain+0x368>
  4035a0:	2442ffff 	addiu	v0,v0,-1
  4035a4:	8ee40010 	lw	a0,16(s7)
  4035a8:	8f99804c 	lw	t9,-32692(gp)
  4035ac:	041151b1 	bal	417c74 <__free>
  4035b0:	00000000 	nop
  4035b4:	1660000d 	bnez	s3,4035ec <_nl_load_domain+0x63c>
  4035b8:	8fbc0018 	lw	gp,24(sp)
  4035bc:	8f99804c 	lw	t9,-32692(gp)
  4035c0:	041151ac 	bal	417c74 <__free>
  4035c4:	02802025 	move	a0,s4
  4035c8:	8fbc0018 	lw	gp,24(sp)
  4035cc:	8f99804c 	lw	t9,-32692(gp)
  4035d0:	041151a8 	bal	417c74 <__free>
  4035d4:	02e02025 	move	a0,s7
  4035d8:	8fc20004 	lw	v0,4(s8)
  4035dc:	8fbc0018 	lw	gp,24(sp)
  4035e0:	ae000008 	sw	zero,8(s0)
  4035e4:	1000ff4c 	b	403318 <_nl_load_domain+0x368>
  4035e8:	2442ffff 	addiu	v0,v0,-1
  4035ec:	3c190042 	lui	t9,0x42
  4035f0:	02a02825 	move	a1,s5
  4035f4:	2739dc3c 	addiu	t9,t9,-9156
  4035f8:	04116990 	bal	41dc3c <__munmap>
  4035fc:	02802025 	move	a0,s4
  403600:	1000fff2 	b	4035cc <_nl_load_domain+0x61c>
  403604:	8fbc0018 	lw	gp,24(sp)
  403608:	804f0001 	lb	t7,1(v0)
  40360c:	240c0052 	li	t4,82
  403610:	11ec0019 	beq	t7,t4,403678 <_nl_load_domain+0x6c8>
  403614:	240c0049 	li	t4,73
  403618:	1000ff25 	b	4032b0 <_nl_load_domain+0x300>
  40361c:	00001025 	move	v0,zero
  403620:	8e840018 	lw	a0,24(s4)
  403624:	aeea0034 	sw	t2,52(s7)
  403628:	7c0420a0 	wsbh	a0,a0
  40362c:	00242402 	ror	a0,a0,0x10
  403630:	02841821 	addu	v1,s4,a0
  403634:	afa30044 	sw	v1,68(sp)
  403638:	1040ffb8 	beqz	v0,40351c <_nl_load_domain+0x56c>
  40363c:	aee30030 	sw	v1,48(s7)
  403640:	8e820024 	lw	v0,36(s4)
  403644:	7c0218a0 	wsbh	v1,v0
  403648:	00231c02 	ror	v1,v1,0x10
  40364c:	1040ffb3 	beqz	v0,40351c <_nl_load_domain+0x56c>
  403650:	afa30034 	sw	v1,52(sp)
  403654:	8e86001c 	lw	a2,28(s4)
  403658:	3c0ade12 	lui	t2,0xde12
  40365c:	8e920020 	lw	s2,32(s4)
  403660:	254a0495 	addiu	t2,t2,1173
  403664:	7c0630a0 	wsbh	a2,a2
  403668:	7c1290a0 	wsbh	s2,s2
  40366c:	00263402 	ror	a2,a2,0x10
  403670:	1000fed2 	b	4031bc <_nl_load_domain+0x20c>
  403674:	00329402 	ror	s2,s2,0x10
  403678:	804f0002 	lb	t7,2(v0)
  40367c:	11ec00b7 	beq	t7,t4,40395c <_nl_load_domain+0x9ac>
  403680:	00000000 	nop
  403684:	1000ff0a 	b	4032b0 <_nl_load_domain+0x300>
  403688:	00001025 	move	v0,zero
  40368c:	8fb30058 	lw	s3,88(sp)
  403690:	8fb4003c 	lw	s4,60(sp)
  403694:	8fb5005c 	lw	s5,92(sp)
  403698:	8fb70060 	lw	s7,96(sp)
  40369c:	8fb00064 	lw	s0,100(sp)
  4036a0:	8f99804c 	lw	t9,-32692(gp)
  4036a4:	04115173 	bal	417c74 <__free>
  4036a8:	8fa40038 	lw	a0,56(sp)
  4036ac:	8fbc0018 	lw	gp,24(sp)
  4036b0:	1000ffbd 	b	4035a8 <_nl_load_domain+0x5f8>
  4036b4:	8ee40010 	lw	a0,16(s7)
  4036b8:	1000fefd 	b	4032b0 <_nl_load_domain+0x300>
  4036bc:	00001025 	move	v0,zero
  4036c0:	3c02de12 	lui	v0,0xde12
  4036c4:	24420495 	addiu	v0,v0,1173
  4036c8:	1062ff69 	beq	v1,v0,403470 <_nl_load_domain+0x4c0>
  4036cc:	8f9980a4 	lw	t9,-32604(gp)
  4036d0:	3c190042 	lui	t9,0x42
  4036d4:	02a02825 	move	a1,s5
  4036d8:	2739dc3c 	addiu	t9,t9,-9156
  4036dc:	04116957 	bal	41dc3c <__munmap>
  4036e0:	02802025 	move	a0,s4
  4036e4:	8fc20004 	lw	v0,4(s8)
  4036e8:	8fbc0018 	lw	gp,24(sp)
  4036ec:	1000ff0a 	b	403318 <_nl_load_domain+0x368>
  4036f0:	2442ffff 	addiu	v0,v0,-1
  4036f4:	8f82831c 	lw	v0,-31972(gp)
  4036f8:	1040ffaa 	beqz	v0,4035a4 <_nl_load_domain+0x5f4>
  4036fc:	8f99831c 	lw	t9,-31972(gp)
  403700:	0320f809 	jalr	t9
  403704:	26e40040 	addiu	a0,s7,64
  403708:	8fbc0018 	lw	gp,24(sp)
  40370c:	1000ffa6 	b	4035a8 <_nl_load_domain+0x5f8>
  403710:	8ee40010 	lw	a0,16(s7)
  403714:	3c049504 	lui	a0,0x9504
  403718:	8e820028 	lw	v0,40(s4)
  40371c:	248412de 	addiu	a0,a0,4830
  403720:	114400a9 	beq	t2,a0,4039c8 <_nl_load_domain+0xa18>
  403724:	8e85002c 	lw	a1,44(s4)
  403728:	7c0210a0 	wsbh	v0,v0
  40372c:	7c0528a0 	wsbh	a1,a1
  403730:	00221402 	ror	v0,v0,0x10
  403734:	00252c02 	ror	a1,a1,0x10
  403738:	02821021 	addu	v0,s4,v0
  40373c:	02852021 	addu	a0,s4,a1
  403740:	afa20074 	sw	v0,116(sp)
  403744:	00402825 	move	a1,v0
  403748:	afb5005c 	sw	s5,92(sp)
  40374c:	27a20090 	addiu	v0,sp,144
  403750:	afb00064 	sw	s0,100(sp)
  403754:	3c129504 	lui	s2,0x9504
  403758:	afa40070 	sw	a0,112(sp)
  40375c:	afa20048 	sw	v0,72(sp)
  403760:	00071880 	sll	v1,a3,0x2
  403764:	264212de 	addiu	v0,s2,4830
  403768:	afa00040 	sw	zero,64(sp)
  40376c:	afa3006c 	sw	v1,108(sp)
  403770:	00c0a825 	move	s5,a2
  403774:	afa20024 	sw	v0,36(sp)
  403778:	3c020042 	lui	v0,0x42
  40377c:	afa0004c 	sw	zero,76(sp)
  403780:	01408025 	move	s0,t2
  403784:	24429b70 	addiu	v0,v0,-25744
  403788:	afa4002c 	sw	a0,44(sp)
  40378c:	afa50030 	sw	a1,48(sp)
  403790:	afa20028 	sw	v0,40(sp)
  403794:	afa30050 	sw	v1,80(sp)
  403798:	afb30058 	sw	s3,88(sp)
  40379c:	afb4003c 	sw	s4,60(sp)
  4037a0:	afa70068 	sw	a3,104(sp)
  4037a4:	afb70060 	sw	s7,96(sp)
  4037a8:	8fb20048 	lw	s2,72(sp)
  4037ac:	00009825 	move	s3,zero
  4037b0:	8fa20024 	lw	v0,36(sp)
  4037b4:	1202003a 	beq	s0,v0,4038a0 <_nl_load_domain+0x8f0>
  4037b8:	00000000 	nop
  4037bc:	12600064 	beqz	s3,403950 <_nl_load_domain+0x9a0>
  4037c0:	8fa2002c 	lw	v0,44(sp)
  4037c4:	8c450000 	lw	a1,0(v0)
  4037c8:	7c0528a0 	wsbh	a1,a1
  4037cc:	8fa2003c 	lw	v0,60(sp)
  4037d0:	00252c02 	ror	a1,a1,0x10
  4037d4:	00452821 	addu	a1,v0,a1
  4037d8:	8ca20008 	lw	v0,8(a1)
  4037dc:	7c0210a0 	wsbh	v0,v0
  4037e0:	00221402 	ror	v0,v0,0x10
  4037e4:	24420001 	addiu	v0,v0,1
  4037e8:	0002102b 	sltu	v0,zero,v0
  4037ec:	14400038 	bnez	v0,4038d0 <_nl_load_domain+0x920>
  4037f0:	24b70004 	addiu	s7,a1,4
  4037f4:	0000a025 	move	s4,zero
  4037f8:	24020001 	li	v0,1
  4037fc:	ae540000 	sw	s4,0(s2)
  403800:	16620031 	bne	s3,v0,4038c8 <_nl_load_domain+0x918>
  403804:	26520004 	addiu	s2,s2,4
  403808:	8fa2004c 	lw	v0,76(sp)
  40380c:	8fa30094 	lw	v1,148(sp)
  403810:	24420001 	addiu	v0,v0,1
  403814:	afa2004c 	sw	v0,76(sp)
  403818:	8fa20090 	lw	v0,144(sp)
  40381c:	00431021 	addu	v0,v0,v1
  403820:	8fa30050 	lw	v1,80(sp)
  403824:	00621021 	addu	v0,v1,v0
  403828:	afa20050 	sw	v0,80(sp)
  40382c:	8fa30030 	lw	v1,48(sp)
  403830:	8fa20040 	lw	v0,64(sp)
  403834:	24630004 	addiu	v1,v1,4
  403838:	24420001 	addiu	v0,v0,1
  40383c:	afa30030 	sw	v1,48(sp)
  403840:	afa20040 	sw	v0,64(sp)
  403844:	8fa30034 	lw	v1,52(sp)
  403848:	0043102b 	sltu	v0,v0,v1
  40384c:	8fa3002c 	lw	v1,44(sp)
  403850:	24630004 	addiu	v1,v1,4
  403854:	1440ffd4 	bnez	v0,4037a8 <_nl_load_domain+0x7f8>
  403858:	afa3002c 	sw	v1,44(sp)
  40385c:	8fa2004c 	lw	v0,76(sp)
  403860:	02005025 	move	t2,s0
  403864:	8fb30058 	lw	s3,88(sp)
  403868:	8fb4003c 	lw	s4,60(sp)
  40386c:	8fb5005c 	lw	s5,92(sp)
  403870:	8fa70068 	lw	a3,104(sp)
  403874:	8fb70060 	lw	s7,96(sp)
  403878:	144000a3 	bnez	v0,403b08 <_nl_load_domain+0xb58>
  40387c:	8fb00064 	lw	s0,100(sp)
  403880:	aee00020 	sw	zero,32(s7)
  403884:	aee00024 	sw	zero,36(s7)
  403888:	aee00028 	sw	zero,40(s7)
  40388c:	8f99804c 	lw	t9,-32692(gp)
  403890:	041150f8 	bal	417c74 <__free>
  403894:	8fa40038 	lw	a0,56(sp)
  403898:	1000ff23 	b	403528 <_nl_load_domain+0x578>
  40389c:	8fbc0018 	lw	gp,24(sp)
  4038a0:	12600028 	beqz	s3,403944 <_nl_load_domain+0x994>
  4038a4:	00000000 	nop
  4038a8:	8fa2002c 	lw	v0,44(sp)
  4038ac:	8c450000 	lw	a1,0(v0)
  4038b0:	8fa2003c 	lw	v0,60(sp)
  4038b4:	00452821 	addu	a1,v0,a1
  4038b8:	8ca20008 	lw	v0,8(a1)
  4038bc:	24420001 	addiu	v0,v0,1
  4038c0:	1000ffca 	b	4037ec <_nl_load_domain+0x83c>
  4038c4:	0002102b 	sltu	v0,zero,v0
  4038c8:	1000ffb9 	b	4037b0 <_nl_load_domain+0x800>
  4038cc:	24130001 	li	s3,1
  4038d0:	afb20054 	sw	s2,84(sp)
  4038d4:	0000a025 	move	s4,zero
  4038d8:	02e09025 	move	s2,s7
  4038dc:	10000013 	b	40392c <_nl_load_domain+0x97c>
  4038e0:	8fb70038 	lw	s7,56(sp)
  4038e4:	7c0420a0 	wsbh	a0,a0
  4038e8:	7c0318a0 	wsbh	v1,v1
  4038ec:	00242402 	ror	a0,a0,0x10
  4038f0:	00231c02 	ror	v1,v1,0x10
  4038f4:	0284a021 	addu	s4,s4,a0
  4038f8:	2402ffff 	li	v0,-1
  4038fc:	10620030 	beq	v1,v0,4039c0 <_nl_load_domain+0xa10>
  403900:	0075102b 	sltu	v0,v1,s5
  403904:	1040ff61 	beqz	v0,40368c <_nl_load_domain+0x6dc>
  403908:	00031880 	sll	v1,v1,0x2
  40390c:	02e31821 	addu	v1,s7,v1
  403910:	8c640000 	lw	a0,0(v1)
  403914:	1080ffc5 	beqz	a0,40382c <_nl_load_domain+0x87c>
  403918:	8fb90028 	lw	t9,40(sp)
  40391c:	0320f809 	jalr	t9
  403920:	26520008 	addiu	s2,s2,8
  403924:	8fbc0018 	lw	gp,24(sp)
  403928:	0054a021 	addu	s4,v0,s4
  40392c:	8fa20024 	lw	v0,36(sp)
  403930:	8e440000 	lw	a0,0(s2)
  403934:	1602ffeb 	bne	s0,v0,4038e4 <_nl_load_domain+0x934>
  403938:	8e430004 	lw	v1,4(s2)
  40393c:	1000ffee 	b	4038f8 <_nl_load_domain+0x948>
  403940:	0284a021 	addu	s4,s4,a0
  403944:	8fa20030 	lw	v0,48(sp)
  403948:	1000ffd9 	b	4038b0 <_nl_load_domain+0x900>
  40394c:	8c450000 	lw	a1,0(v0)
  403950:	8fa20030 	lw	v0,48(sp)
  403954:	1000ff9c 	b	4037c8 <_nl_load_domain+0x818>
  403958:	8c450000 	lw	a1,0(v0)
  40395c:	804c0003 	lb	t4,3(v0)
  403960:	258fff9c 	addiu	t7,t4,-100
  403964:	31ef00ff 	andi	t7,t7,0xff
  403968:	2df80012 	sltiu	t8,t7,18
  40396c:	17000018 	bnez	t8,4039d0 <_nl_load_domain+0xa20>
  403970:	3c180002 	lui	t8,0x2
  403974:	240fffdf 	li	t7,-33
  403978:	24180058 	li	t8,88
  40397c:	018f7824 	and	t7,t4,t7
  403980:	15f802cc 	bne	t7,t8,4044b4 <_nl_load_domain+0x1504>
  403984:	00000000 	nop
  403988:	804f0004 	lb	t7,4(v0)
  40398c:	24180038 	li	t8,56
  403990:	11f80039 	beq	t7,t8,403a78 <_nl_load_domain+0xac8>
  403994:	24190031 	li	t9,49
  403998:	11f9004e 	beq	t7,t9,403ad4 <_nl_load_domain+0xb24>
  40399c:	24190033 	li	t9,51
  4039a0:	15f90012 	bne	t7,t9,4039ec <_nl_load_domain+0xa3c>
  4039a4:	00000000 	nop
  4039a8:	80580005 	lb	t8,5(v0)
  4039ac:	240f0032 	li	t7,50
  4039b0:	130f01c5 	beq	t8,t7,4040c8 <_nl_load_domain+0x1118>
  4039b4:	00000000 	nop
  4039b8:	1000fe3d 	b	4032b0 <_nl_load_domain+0x300>
  4039bc:	00001025 	move	v0,zero
  4039c0:	1000ff8d 	b	4037f8 <_nl_load_domain+0x848>
  4039c4:	8fb20054 	lw	s2,84(sp)
  4039c8:	1000ff5c 	b	40373c <_nl_load_domain+0x78c>
  4039cc:	02821021 	addu	v0,s4,v0
  4039d0:	27180821 	addiu	t8,t8,2081
  4039d4:	01f87806 	srlv	t7,t8,t7
  4039d8:	7def0000 	ext	t7,t7,0x0,0x1
  4039dc:	15e0ffea 	bnez	t7,403988 <_nl_load_domain+0x9d8>
  4039e0:	00000000 	nop
  4039e4:	1000fe32 	b	4032b0 <_nl_load_domain+0x300>
  4039e8:	00001025 	move	v0,zero
  4039ec:	24190036 	li	t9,54
  4039f0:	15f90007 	bne	t7,t9,403a10 <_nl_load_domain+0xa60>
  4039f4:	00000000 	nop
  4039f8:	80580005 	lb	t8,5(v0)
  4039fc:	240f0034 	li	t7,52
  403a00:	130f01cb 	beq	t8,t7,404130 <_nl_load_domain+0x1180>
  403a04:	00000000 	nop
  403a08:	1000fe29 	b	4032b0 <_nl_load_domain+0x300>
  403a0c:	00001025 	move	v0,zero
  403a10:	2419004c 	li	t9,76
  403a14:	15f90007 	bne	t7,t9,403a34 <_nl_load_domain+0xa84>
  403a18:	24190046 	li	t9,70
  403a1c:	80590005 	lb	t9,5(v0)
  403a20:	240f0045 	li	t7,69
  403a24:	132f019e 	beq	t9,t7,4040a0 <_nl_load_domain+0x10f0>
  403a28:	240f0041 	li	t7,65
  403a2c:	1000fe20 	b	4032b0 <_nl_load_domain+0x300>
  403a30:	00001025 	move	v0,zero
  403a34:	15f90007 	bne	t7,t9,403a54 <_nl_load_domain+0xaa4>
  403a38:	00000000 	nop
  403a3c:	80590005 	lb	t9,5(v0)
  403a40:	240f0041 	li	t7,65
  403a44:	132f019b 	beq	t9,t7,4040b4 <_nl_load_domain+0x1104>
  403a48:	240f0053 	li	t7,83
  403a4c:	1000fe18 	b	4032b0 <_nl_load_domain+0x300>
  403a50:	00001025 	move	v0,zero
  403a54:	2418004d 	li	t8,77
  403a58:	15f80024 	bne	t7,t8,403aec <_nl_load_domain+0xb3c>
  403a5c:	24180050 	li	t8,80
  403a60:	80580005 	lb	t8,5(v0)
  403a64:	240f0041 	li	t7,65
  403a68:	130f0180 	beq	t8,t7,40406c <_nl_load_domain+0x10bc>
  403a6c:	240f0058 	li	t7,88
  403a70:	1000fe0f 	b	4032b0 <_nl_load_domain+0x300>
  403a74:	00001025 	move	v0,zero
  403a78:	80420005 	lb	v0,5(v0)
  403a7c:	1440fe0c 	bnez	v0,4032b0 <_nl_load_domain+0x300>
  403a80:	00001025 	move	v0,zero
  403a84:	24020064 	li	v0,100
  403a88:	1182fe09 	beq	t4,v0,4032b0 <_nl_load_domain+0x300>
  403a8c:	01c01025 	move	v0,t6
  403a90:	24020069 	li	v0,105
  403a94:	1182fe06 	beq	t4,v0,4032b0 <_nl_load_domain+0x300>
  403a98:	01a01025 	move	v0,t5
  403a9c:	2402006f 	li	v0,111
  403aa0:	1182fe03 	beq	t4,v0,4032b0 <_nl_load_domain+0x300>
  403aa4:	8fa20024 	lw	v0,36(sp)
  403aa8:	24020075 	li	v0,117
  403aac:	1182fe00 	beq	t4,v0,4032b0 <_nl_load_domain+0x300>
  403ab0:	8fa20028 	lw	v0,40(sp)
  403ab4:	24020078 	li	v0,120
  403ab8:	1182fdfd 	beq	t4,v0,4032b0 <_nl_load_domain+0x300>
  403abc:	8fa2002c 	lw	v0,44(sp)
  403ac0:	24020058 	li	v0,88
  403ac4:	15820305 	bne	t4,v0,4046dc <_nl_load_domain+0x172c>
  403ac8:	00601025 	move	v0,v1
  403acc:	1000fdf9 	b	4032b4 <_nl_load_domain+0x304>
  403ad0:	24a50001 	addiu	a1,a1,1
  403ad4:	80580005 	lb	t8,5(v0)
  403ad8:	240f0036 	li	t7,54
  403adc:	130f014c 	beq	t8,t7,404010 <_nl_load_domain+0x1060>
  403ae0:	00000000 	nop
  403ae4:	1000fdf2 	b	4032b0 <_nl_load_domain+0x300>
  403ae8:	00001025 	move	v0,zero
  403aec:	15f801fe 	bne	t7,t8,4042e8 <_nl_load_domain+0x1338>
  403af0:	240f0054 	li	t7,84
  403af4:	80580005 	lb	t8,5(v0)
  403af8:	130f01a4 	beq	t8,t7,40418c <_nl_load_domain+0x11dc>
  403afc:	240f0052 	li	t7,82
  403b00:	1000fdeb 	b	4032b0 <_nl_load_domain+0x300>
  403b04:	00001025 	move	v0,zero
  403b08:	00022100 	sll	a0,v0,0x4
  403b0c:	8fa20050 	lw	v0,80(sp)
  403b10:	8f9980a4 	lw	t9,-32604(gp)
  403b14:	afa70028 	sw	a3,40(sp)
  403b18:	00822021 	addu	a0,a0,v0
  403b1c:	04114e82 	bal	417528 <__libc_malloc>
  403b20:	afaa0024 	sw	t2,36(sp)
  403b24:	8fbc0018 	lw	gp,24(sp)
  403b28:	8faa0024 	lw	t2,36(sp)
  403b2c:	8fa70028 	lw	a3,40(sp)
  403b30:	1040fe9c 	beqz	v0,4035a4 <_nl_load_domain+0x5f4>
  403b34:	afa2003c 	sw	v0,60(sp)
  403b38:	8fa2004c 	lw	v0,76(sp)
  403b3c:	00007025 	move	t6,zero
  403b40:	8fa90070 	lw	t1,112(sp)
  403b44:	8fac0074 	lw	t4,116(sp)
  403b48:	000258c0 	sll	t3,v0,0x3
  403b4c:	8fa2003c 	lw	v0,60(sp)
  403b50:	afb50078 	sw	s5,120(sp)
  403b54:	afb70070 	sw	s7,112(sp)
  403b58:	aee20010 	sw	v0,16(s7)
  403b5c:	004b1021 	addu	v0,v0,t3
  403b60:	afa00030 	sw	zero,48(sp)
  403b64:	0280b825 	move	s7,s4
  403b68:	004b5821 	addu	t3,v0,t3
  403b6c:	afa20058 	sw	v0,88(sp)
  403b70:	8fa2006c 	lw	v0,108(sp)
  403b74:	8fb50038 	lw	s5,56(sp)
  403b78:	afb3006c 	sw	s3,108(sp)
  403b7c:	01629021 	addu	s2,t3,v0
  403b80:	afab007c 	sw	t3,124(sp)
  403b84:	3c020042 	lui	v0,0x42
  403b88:	afa70080 	sw	a3,128(sp)
  403b8c:	0240a025 	move	s4,s2
  403b90:	afb00074 	sw	s0,116(sp)
  403b94:	24429b70 	addiu	v0,v0,-25744
  403b98:	01409025 	move	s2,t2
  403b9c:	afa20040 	sw	v0,64(sp)
  403ba0:	3c059504 	lui	a1,0x9504
  403ba4:	00004025 	move	t0,zero
  403ba8:	24a512de 	addiu	a1,a1,4830
  403bac:	2406ffff 	li	a2,-1
  403bb0:	240d0001 	li	t5,1
  403bb4:	12450078 	beq	s2,a1,403d98 <_nl_load_domain+0xde8>
  403bb8:	00000000 	nop
  403bbc:	110000ed 	beqz	t0,403f74 <_nl_load_domain+0xfc4>
  403bc0:	00000000 	nop
  403bc4:	8d230000 	lw	v1,0(t1)
  403bc8:	7c0318a0 	wsbh	v1,v1
  403bcc:	00231c02 	ror	v1,v1,0x10
  403bd0:	02e31821 	addu	v1,s7,v1
  403bd4:	8c620008 	lw	v0,8(v1)
  403bd8:	7c0220a0 	wsbh	a0,v0
  403bdc:	00242402 	ror	a0,a0,0x10
  403be0:	14860074 	bne	a0,a2,403db4 <_nl_load_domain+0xe04>
  403be4:	00000000 	nop
  403be8:	150d00eb 	bne	t0,t5,403f98 <_nl_load_domain+0xfe8>
  403bec:	00000000 	nop
  403bf0:	8fa20030 	lw	v0,48(sp)
  403bf4:	3c139504 	lui	s3,0x9504
  403bf8:	8fa30058 	lw	v1,88(sp)
  403bfc:	267312de 	addiu	s3,s3,4830
  403c00:	afa0002c 	sw	zero,44(sp)
  403c04:	000210c0 	sll	v0,v0,0x3
  403c08:	afb50028 	sw	s5,40(sp)
  403c0c:	afae0068 	sw	t6,104(sp)
  403c10:	00621821 	addu	v1,v1,v0
  403c14:	afa90048 	sw	t1,72(sp)
  403c18:	afac0050 	sw	t4,80(sp)
  403c1c:	afa30054 	sw	v1,84(sp)
  403c20:	8fa3003c 	lw	v1,60(sp)
  403c24:	afa80064 	sw	t0,100(sp)
  403c28:	00621021 	addu	v0,v1,v0
  403c2c:	afa2005c 	sw	v0,92(sp)
  403c30:	12530020 	beq	s2,s3,403cb4 <_nl_load_domain+0xd04>
  403c34:	8fa2002c 	lw	v0,44(sp)
  403c38:	1040013a 	beqz	v0,404124 <_nl_load_domain+0x1174>
  403c3c:	8fa20050 	lw	v0,80(sp)
  403c40:	8fa20048 	lw	v0,72(sp)
  403c44:	8c470000 	lw	a3,0(v0)
  403c48:	8fa20054 	lw	v0,84(sp)
  403c4c:	7c0738a0 	wsbh	a3,a3
  403c50:	afa20060 	sw	v0,96(sp)
  403c54:	2404ffff 	li	a0,-1
  403c58:	00273c02 	ror	a3,a3,0x10
  403c5c:	02e73821 	addu	a3,s7,a3
  403c60:	8cf00000 	lw	s0,0(a3)
  403c64:	8ce30008 	lw	v1,8(a3)
  403c68:	8ce20004 	lw	v0,4(a3)
  403c6c:	7c1080a0 	wsbh	s0,s0
  403c70:	7c0318a0 	wsbh	v1,v1
  403c74:	00308402 	ror	s0,s0,0x10
  403c78:	00231c02 	ror	v1,v1,0x10
  403c7c:	1464001a 	bne	v1,a0,403ce8 <_nl_load_domain+0xd38>
  403c80:	02f08021 	addu	s0,s7,s0
  403c84:	7c0210a0 	wsbh	v0,v0
  403c88:	00221402 	ror	v0,v0,0x10
  403c8c:	8fa30060 	lw	v1,96(sp)
  403c90:	ac620000 	sw	v0,0(v1)
  403c94:	ac700004 	sw	s0,4(v1)
  403c98:	8fa3002c 	lw	v1,44(sp)
  403c9c:	24020001 	li	v0,1
  403ca0:	106200c6 	beq	v1,v0,403fbc <_nl_load_domain+0x100c>
  403ca4:	8fa20064 	lw	v0,100(sp)
  403ca8:	afa2002c 	sw	v0,44(sp)
  403cac:	1653ffe2 	bne	s2,s3,403c38 <_nl_load_domain+0xc88>
  403cb0:	8fa2002c 	lw	v0,44(sp)
  403cb4:	104000f2 	beqz	v0,404080 <_nl_load_domain+0x10d0>
  403cb8:	00000000 	nop
  403cbc:	8fa20048 	lw	v0,72(sp)
  403cc0:	8c470000 	lw	a3,0(v0)
  403cc4:	8fa20054 	lw	v0,84(sp)
  403cc8:	02e73821 	addu	a3,s7,a3
  403ccc:	afa20060 	sw	v0,96(sp)
  403cd0:	8cf00000 	lw	s0,0(a3)
  403cd4:	02f08021 	addu	s0,s7,s0
  403cd8:	8ce30008 	lw	v1,8(a3)
  403cdc:	2404ffff 	li	a0,-1
  403ce0:	1064ffea 	beq	v1,a0,403c8c <_nl_load_domain+0xcdc>
  403ce4:	8ce20004 	lw	v0,4(a3)
  403ce8:	8fa20060 	lw	v0,96(sp)
  403cec:	24f50004 	addiu	s5,a3,4
  403cf0:	afb70084 	sw	s7,132(sp)
  403cf4:	0280b825 	move	s7,s4
  403cf8:	ac540004 	sw	s4,4(v0)
  403cfc:	10000015 	b	403d54 <_nl_load_domain+0xda4>
  403d00:	0200a025 	move	s4,s0
  403d04:	2402ffff 	li	v0,-1
  403d08:	120200b4 	beq	s0,v0,403fdc <_nl_load_domain+0x102c>
  403d0c:	8fa30028 	lw	v1,40(sp)
  403d10:	00101080 	sll	v0,s0,0x2
  403d14:	8fb90040 	lw	t9,64(sp)
  403d18:	26b50008 	addiu	s5,s5,8
  403d1c:	00621021 	addu	v0,v1,v0
  403d20:	8c450000 	lw	a1,0(v0)
  403d24:	00a02025 	move	a0,a1
  403d28:	0320f809 	jalr	t9
  403d2c:	afa50024 	sw	a1,36(sp)
  403d30:	02e02025 	move	a0,s7
  403d34:	8fbc0018 	lw	gp,24(sp)
  403d38:	00403025 	move	a2,v0
  403d3c:	8fa50024 	lw	a1,36(sp)
  403d40:	00408025 	move	s0,v0
  403d44:	8f998088 	lw	t9,-32632(gp)
  403d48:	04115bd5 	bal	41aca0 <memcpy>
  403d4c:	02f0b821 	addu	s7,s7,s0
  403d50:	8fbc0018 	lw	gp,24(sp)
  403d54:	8ea60000 	lw	a2,0(s5)
  403d58:	12530005 	beq	s2,s3,403d70 <_nl_load_domain+0xdc0>
  403d5c:	8eb00004 	lw	s0,4(s5)
  403d60:	7c0630a0 	wsbh	a2,a2
  403d64:	7c1080a0 	wsbh	s0,s0
  403d68:	00263402 	ror	a2,a2,0x10
  403d6c:	00308402 	ror	s0,s0,0x10
  403d70:	10c0ffe5 	beqz	a2,403d08 <_nl_load_domain+0xd58>
  403d74:	2402ffff 	li	v0,-1
  403d78:	8f998088 	lw	t9,-32632(gp)
  403d7c:	02802825 	move	a1,s4
  403d80:	02e02025 	move	a0,s7
  403d84:	0286a021 	addu	s4,s4,a2
  403d88:	04115bc5 	bal	41aca0 <memcpy>
  403d8c:	02e6b821 	addu	s7,s7,a2
  403d90:	1000ffdc 	b	403d04 <_nl_load_domain+0xd54>
  403d94:	8fbc0018 	lw	gp,24(sp)
  403d98:	11000081 	beqz	t0,403fa0 <_nl_load_domain+0xff0>
  403d9c:	00000000 	nop
  403da0:	8d230000 	lw	v1,0(t1)
  403da4:	02e31821 	addu	v1,s7,v1
  403da8:	8c620008 	lw	v0,8(v1)
  403dac:	1046ff8e 	beq	v0,a2,403be8 <_nl_load_domain+0xc38>
  403db0:	00000000 	nop
  403db4:	10000003 	b	403dc4 <_nl_load_domain+0xe14>
  403db8:	24630004 	addiu	v1,v1,4
  403dbc:	8c62000c 	lw	v0,12(v1)
  403dc0:	24630008 	addiu	v1,v1,8
  403dc4:	12450003 	beq	s2,a1,403dd4 <_nl_load_domain+0xe24>
  403dc8:	00000000 	nop
  403dcc:	7c0210a0 	wsbh	v0,v0
  403dd0:	00221402 	ror	v0,v0,0x10
  403dd4:	1046ff84 	beq	v0,a2,403be8 <_nl_load_domain+0xc38>
  403dd8:	00000000 	nop
  403ddc:	00021080 	sll	v0,v0,0x2
  403de0:	02a21021 	addu	v0,s5,v0
  403de4:	8c420000 	lw	v0,0(v0)
  403de8:	1440fff4 	bnez	v0,403dbc <_nl_load_domain+0xe0c>
  403dec:	00000000 	nop
  403df0:	8fa20034 	lw	v0,52(sp)
  403df4:	25ce0001 	addiu	t6,t6,1
  403df8:	258c0004 	addiu	t4,t4,4
  403dfc:	01c2102b 	sltu	v0,t6,v0
  403e00:	1440ff67 	bnez	v0,403ba0 <_nl_load_domain+0xbf0>
  403e04:	25290004 	addiu	t1,t1,4
  403e08:	8fa2004c 	lw	v0,76(sp)
  403e0c:	02e0a025 	move	s4,s7
  403e10:	8fa30030 	lw	v1,48(sp)
  403e14:	02405025 	move	t2,s2
  403e18:	8fb3006c 	lw	s3,108(sp)
  403e1c:	8fb50078 	lw	s5,120(sp)
  403e20:	8fab007c 	lw	t3,124(sp)
  403e24:	8fa70080 	lw	a3,128(sp)
  403e28:	8fb70070 	lw	s7,112(sp)
  403e2c:	1443022b 	bne	v0,v1,4046dc <_nl_load_domain+0x172c>
  403e30:	8fb00074 	lw	s0,116(sp)
  403e34:	3c0c9504 	lui	t4,0x9504
  403e38:	8fa20044 	lw	v0,68(sp)
  403e3c:	00003025 	move	a2,zero
  403e40:	258c12de 	addiu	t4,t4,4830
  403e44:	01602825 	move	a1,t3
  403e48:	114c0003 	beq	t2,t4,403e58 <_nl_load_domain+0xea8>
  403e4c:	8c430000 	lw	v1,0(v0)
  403e50:	7c0318a0 	wsbh	v1,v1
  403e54:	00231c02 	ror	v1,v1,0x10
  403e58:	24c60001 	addiu	a2,a2,1
  403e5c:	aca30000 	sw	v1,0(a1)
  403e60:	24420004 	addiu	v0,v0,4
  403e64:	00c7182b 	sltu	v1,a2,a3
  403e68:	1460fff7 	bnez	v1,403e48 <_nl_load_domain+0xe98>
  403e6c:	24a50004 	addiu	a1,a1,4
  403e70:	8fa2003c 	lw	v0,60(sp)
  403e74:	00009025 	move	s2,zero
  403e78:	afb00030 	sw	s0,48(sp)
  403e7c:	afb30028 	sw	s3,40(sp)
  403e80:	02e09825 	move	s3,s7
  403e84:	24430004 	addiu	v1,v0,4
  403e88:	afb4002c 	sw	s4,44(sp)
  403e8c:	3c020040 	lui	v0,0x40
  403e90:	8fb0004c 	lw	s0,76(sp)
  403e94:	0160b825 	move	s7,t3
  403e98:	24426550 	addiu	v0,v0,25936
  403e9c:	0060a025 	move	s4,v1
  403ea0:	afa20024 	sw	v0,36(sp)
  403ea4:	8fb90024 	lw	t9,36(sp)
  403ea8:	0320f809 	jalr	t9
  403eac:	8e840000 	lw	a0,0(s4)
  403eb0:	8e65002c 	lw	a1,44(s3)
  403eb4:	8fbc0018 	lw	gp,24(sp)
  403eb8:	00a001f4 	teq	a1,zero,0x7
  403ebc:	0045001b 	divu	zero,v0,a1
  403ec0:	24a6fffe 	addiu	a2,a1,-2
  403ec4:	00002010 	mfhi	a0
  403ec8:	00c001f4 	teq	a2,zero,0x7
  403ecc:	0046001b 	divu	zero,v0,a2
  403ed0:	00041080 	sll	v0,a0,0x2
  403ed4:	02e21021 	addu	v0,s7,v0
  403ed8:	8c490000 	lw	t1,0(v0)
  403edc:	00003010 	mfhi	a2
  403ee0:	1120000f 	beqz	t1,403f20 <_nl_load_domain+0xf70>
  403ee4:	24c60001 	addiu	a2,a2,1
  403ee8:	00a65023 	subu	t2,a1,a2
  403eec:	10000007 	b	403f0c <_nl_load_domain+0xf5c>
  403ef0:	00c54823 	subu	t1,a2,a1
  403ef4:	00892021 	addu	a0,a0,t1
  403ef8:	00041080 	sll	v0,a0,0x2
  403efc:	02e21021 	addu	v0,s7,v0
  403f00:	8c450000 	lw	a1,0(v0)
  403f04:	10a00006 	beqz	a1,403f20 <_nl_load_domain+0xf70>
  403f08:	00000000 	nop
  403f0c:	008a102b 	sltu	v0,a0,t2
  403f10:	1040fff8 	beqz	v0,403ef4 <_nl_load_domain+0xf44>
  403f14:	00000000 	nop
  403f18:	1000fff7 	b	403ef8 <_nl_load_domain+0xf48>
  403f1c:	00862021 	addu	a0,a0,a2
  403f20:	8e640014 	lw	a0,20(s3)
  403f24:	26940008 	addiu	s4,s4,8
  403f28:	24840001 	addiu	a0,a0,1
  403f2c:	00922021 	addu	a0,a0,s2
  403f30:	26520001 	addiu	s2,s2,1
  403f34:	1612ffdb 	bne	s0,s2,403ea4 <_nl_load_domain+0xef4>
  403f38:	ac440000 	sw	a0,0(v0)
  403f3c:	8fa2004c 	lw	v0,76(sp)
  403f40:	02e05825 	move	t3,s7
  403f44:	0260b825 	move	s7,s3
  403f48:	8fb4002c 	lw	s4,44(sp)
  403f4c:	8fb30028 	lw	s3,40(sp)
  403f50:	aee20020 	sw	v0,32(s7)
  403f54:	8fa2003c 	lw	v0,60(sp)
  403f58:	8fb00030 	lw	s0,48(sp)
  403f5c:	aeeb0030 	sw	t3,48(s7)
  403f60:	aee20024 	sw	v0,36(s7)
  403f64:	aee00034 	sw	zero,52(s7)
  403f68:	8fa20058 	lw	v0,88(sp)
  403f6c:	1000fe47 	b	40388c <_nl_load_domain+0x8dc>
  403f70:	aee20028 	sw	v0,40(s7)
  403f74:	8d830000 	lw	v1,0(t4)
  403f78:	7c0318a0 	wsbh	v1,v1
  403f7c:	00231c02 	ror	v1,v1,0x10
  403f80:	02e31821 	addu	v1,s7,v1
  403f84:	8c620008 	lw	v0,8(v1)
  403f88:	7c0220a0 	wsbh	a0,v0
  403f8c:	00242402 	ror	a0,a0,0x10
  403f90:	1486ff88 	bne	a0,a2,403db4 <_nl_load_domain+0xe04>
  403f94:	00000000 	nop
  403f98:	1000ff06 	b	403bb4 <_nl_load_domain+0xc04>
  403f9c:	24080001 	li	t0,1
  403fa0:	8d830000 	lw	v1,0(t4)
  403fa4:	02e31821 	addu	v1,s7,v1
  403fa8:	8c620008 	lw	v0,8(v1)
  403fac:	1446ff81 	bne	v0,a2,403db4 <_nl_load_domain+0xe04>
  403fb0:	00000000 	nop
  403fb4:	1000feff 	b	403bb4 <_nl_load_domain+0xc04>
  403fb8:	24080001 	li	t0,1
  403fbc:	8fa20030 	lw	v0,48(sp)
  403fc0:	8fb50028 	lw	s5,40(sp)
  403fc4:	8fae0068 	lw	t6,104(sp)
  403fc8:	24420001 	addiu	v0,v0,1
  403fcc:	8fa90048 	lw	t1,72(sp)
  403fd0:	8fac0050 	lw	t4,80(sp)
  403fd4:	1000ff86 	b	403df0 <_nl_load_domain+0xe40>
  403fd8:	afa20030 	sw	v0,48(sp)
  403fdc:	8fa30060 	lw	v1,96(sp)
  403fe0:	02e0a025 	move	s4,s7
  403fe4:	8fb70084 	lw	s7,132(sp)
  403fe8:	8c620004 	lw	v0,4(v1)
  403fec:	02821023 	subu	v0,s4,v0
  403ff0:	1000ff29 	b	403c98 <_nl_load_domain+0xce8>
  403ff4:	ac620000 	sw	v0,0(v1)
  403ff8:	04114f1e 	bal	417c74 <__free>
  403ffc:	02802025 	move	a0,s4
  404000:	8fc20004 	lw	v0,4(s8)
  404004:	8fbc0018 	lw	gp,24(sp)
  404008:	1000fcc3 	b	403318 <_nl_load_domain+0x368>
  40400c:	2442ffff 	addiu	v0,v0,-1
  404010:	80420006 	lb	v0,6(v0)
  404014:	1440fca6 	bnez	v0,4032b0 <_nl_load_domain+0x300>
  404018:	00001025 	move	v0,zero
  40401c:	24020064 	li	v0,100
  404020:	1182fca3 	beq	t4,v0,4032b0 <_nl_load_domain+0x300>
  404024:	01c01025 	move	v0,t6
  404028:	24020069 	li	v0,105
  40402c:	1182fca0 	beq	t4,v0,4032b0 <_nl_load_domain+0x300>
  404030:	01a01025 	move	v0,t5
  404034:	2402006f 	li	v0,111
  404038:	1182fc9d 	beq	t4,v0,4032b0 <_nl_load_domain+0x300>
  40403c:	8fa20024 	lw	v0,36(sp)
  404040:	24020075 	li	v0,117
  404044:	1182fc9a 	beq	t4,v0,4032b0 <_nl_load_domain+0x300>
  404048:	8fa20028 	lw	v0,40(sp)
  40404c:	24020078 	li	v0,120
  404050:	1182fc97 	beq	t4,v0,4032b0 <_nl_load_domain+0x300>
  404054:	8fa2002c 	lw	v0,44(sp)
  404058:	24020058 	li	v0,88
  40405c:	1582019f 	bne	t4,v0,4046dc <_nl_load_domain+0x172c>
  404060:	00601025 	move	v0,v1
  404064:	1000fc93 	b	4032b4 <_nl_load_domain+0x304>
  404068:	24a50001 	addiu	a1,a1,1
  40406c:	80580006 	lb	t8,6(v0)
  404070:	130f0054 	beq	t8,t7,4041c4 <_nl_load_domain+0x1214>
  404074:	00000000 	nop
  404078:	1000fc8d 	b	4032b0 <_nl_load_domain+0x300>
  40407c:	00001025 	move	v0,zero
  404080:	8fa20050 	lw	v0,80(sp)
  404084:	8c470000 	lw	a3,0(v0)
  404088:	8fa2005c 	lw	v0,92(sp)
  40408c:	02e73821 	addu	a3,s7,a3
  404090:	afa20060 	sw	v0,96(sp)
  404094:	8cf00000 	lw	s0,0(a3)
  404098:	1000ff0f 	b	403cd8 <_nl_load_domain+0xd28>
  40409c:	02f08021 	addu	s0,s7,s0
  4040a0:	80590006 	lb	t9,6(v0)
  4040a4:	132f0042 	beq	t9,t7,4041b0 <_nl_load_domain+0x1200>
  4040a8:	240f0053 	li	t7,83
  4040ac:	1000fc80 	b	4032b0 <_nl_load_domain+0x300>
  4040b0:	00001025 	move	v0,zero
  4040b4:	80590006 	lb	t9,6(v0)
  4040b8:	132f0070 	beq	t9,t7,40427c <_nl_load_domain+0x12cc>
  4040bc:	240f0054 	li	t7,84
  4040c0:	1000fc7b 	b	4032b0 <_nl_load_domain+0x300>
  4040c4:	00001025 	move	v0,zero
  4040c8:	80420006 	lb	v0,6(v0)
  4040cc:	1440fc78 	bnez	v0,4032b0 <_nl_load_domain+0x300>
  4040d0:	00001025 	move	v0,zero
  4040d4:	24020064 	li	v0,100
  4040d8:	1182fc75 	beq	t4,v0,4032b0 <_nl_load_domain+0x300>
  4040dc:	01c01025 	move	v0,t6
  4040e0:	24020069 	li	v0,105
  4040e4:	1182fc72 	beq	t4,v0,4032b0 <_nl_load_domain+0x300>
  4040e8:	01a01025 	move	v0,t5
  4040ec:	2402006f 	li	v0,111
  4040f0:	1182fc6f 	beq	t4,v0,4032b0 <_nl_load_domain+0x300>
  4040f4:	8fa20024 	lw	v0,36(sp)
  4040f8:	24020075 	li	v0,117
  4040fc:	1182fc6c 	beq	t4,v0,4032b0 <_nl_load_domain+0x300>
  404100:	8fa20028 	lw	v0,40(sp)
  404104:	24020078 	li	v0,120
  404108:	1182fc69 	beq	t4,v0,4032b0 <_nl_load_domain+0x300>
  40410c:	8fa2002c 	lw	v0,44(sp)
  404110:	24020058 	li	v0,88
  404114:	15820171 	bne	t4,v0,4046dc <_nl_load_domain+0x172c>
  404118:	00601025 	move	v0,v1
  40411c:	1000fc65 	b	4032b4 <_nl_load_domain+0x304>
  404120:	24a50001 	addiu	a1,a1,1
  404124:	8c470000 	lw	a3,0(v0)
  404128:	1000fec8 	b	403c4c <_nl_load_domain+0xc9c>
  40412c:	8fa2005c 	lw	v0,92(sp)
  404130:	80420006 	lb	v0,6(v0)
  404134:	1440fc5e 	bnez	v0,4032b0 <_nl_load_domain+0x300>
  404138:	00001025 	move	v0,zero
  40413c:	24020064 	li	v0,100
  404140:	1182fc5b 	beq	t4,v0,4032b0 <_nl_load_domain+0x300>
  404144:	01201025 	move	v0,t1
  404148:	24020069 	li	v0,105
  40414c:	1182fc58 	beq	t4,v0,4032b0 <_nl_load_domain+0x300>
  404150:	01001025 	move	v0,t0
  404154:	2402006f 	li	v0,111
  404158:	1182fc55 	beq	t4,v0,4032b0 <_nl_load_domain+0x300>
  40415c:	03e01025 	move	v0,ra
  404160:	24020075 	li	v0,117
  404164:	1182015b 	beq	t4,v0,4046d4 <_nl_load_domain+0x1724>
  404168:	8fa20030 	lw	v0,48(sp)
  40416c:	24020078 	li	v0,120
  404170:	11820156 	beq	t4,v0,4046cc <_nl_load_domain+0x171c>
  404174:	3c020046 	lui	v0,0x46
  404178:	24020058 	li	v0,88
  40417c:	15820157 	bne	t4,v0,4046dc <_nl_load_domain+0x172c>
  404180:	3c020046 	lui	v0,0x46
  404184:	1000fc4a 	b	4032b0 <_nl_load_domain+0x300>
  404188:	244276c8 	addiu	v0,v0,30408
  40418c:	80580006 	lb	t8,6(v0)
  404190:	130f0023 	beq	t8,t7,404220 <_nl_load_domain+0x1270>
  404194:	00000000 	nop
  404198:	1000fc45 	b	4032b0 <_nl_load_domain+0x300>
  40419c:	00001025 	move	v0,zero
  4041a0:	04116cc3 	bal	41f4b0 <__stack_chk_fail>
  4041a4:	00000000 	nop
  4041a8:	1000fc41 	b	4032b0 <_nl_load_domain+0x300>
  4041ac:	00001025 	move	v0,zero
  4041b0:	80590007 	lb	t9,7(v0)
  4041b4:	132f0036 	beq	t9,t7,404290 <_nl_load_domain+0x12e0>
  4041b8:	240f0054 	li	t7,84
  4041bc:	1000fc3c 	b	4032b0 <_nl_load_domain+0x300>
  4041c0:	00001025 	move	v0,zero
  4041c4:	80420007 	lb	v0,7(v0)
  4041c8:	1440fc39 	bnez	v0,4032b0 <_nl_load_domain+0x300>
  4041cc:	00001025 	move	v0,zero
  4041d0:	24020064 	li	v0,100
  4041d4:	1182fc36 	beq	t4,v0,4032b0 <_nl_load_domain+0x300>
  4041d8:	01201025 	move	v0,t1
  4041dc:	24020069 	li	v0,105
  4041e0:	1182fc33 	beq	t4,v0,4032b0 <_nl_load_domain+0x300>
  4041e4:	01001025 	move	v0,t0
  4041e8:	2402006f 	li	v0,111
  4041ec:	1182fc30 	beq	t4,v0,4032b0 <_nl_load_domain+0x300>
  4041f0:	03e01025 	move	v0,ra
  4041f4:	24020075 	li	v0,117
  4041f8:	11820132 	beq	t4,v0,4046c4 <_nl_load_domain+0x1714>
  4041fc:	8fa20030 	lw	v0,48(sp)
  404200:	24020078 	li	v0,120
  404204:	1182012d 	beq	t4,v0,4046bc <_nl_load_domain+0x170c>
  404208:	3c020046 	lui	v0,0x46
  40420c:	24020058 	li	v0,88
  404210:	15820132 	bne	t4,v0,4046dc <_nl_load_domain+0x172c>
  404214:	3c020046 	lui	v0,0x46
  404218:	1000fc25 	b	4032b0 <_nl_load_domain+0x300>
  40421c:	244276c8 	addiu	v0,v0,30408
  404220:	80420007 	lb	v0,7(v0)
  404224:	1440fc22 	bnez	v0,4032b0 <_nl_load_domain+0x300>
  404228:	00001025 	move	v0,zero
  40422c:	24020064 	li	v0,100
  404230:	1182fc1f 	beq	t4,v0,4032b0 <_nl_load_domain+0x300>
  404234:	01c01025 	move	v0,t6
  404238:	24020069 	li	v0,105
  40423c:	1182fc1c 	beq	t4,v0,4032b0 <_nl_load_domain+0x300>
  404240:	01a01025 	move	v0,t5
  404244:	2402006f 	li	v0,111
  404248:	1182fc19 	beq	t4,v0,4032b0 <_nl_load_domain+0x300>
  40424c:	8fa20024 	lw	v0,36(sp)
  404250:	24020075 	li	v0,117
  404254:	1182fc16 	beq	t4,v0,4032b0 <_nl_load_domain+0x300>
  404258:	8fa20028 	lw	v0,40(sp)
  40425c:	24020078 	li	v0,120
  404260:	1182fc13 	beq	t4,v0,4032b0 <_nl_load_domain+0x300>
  404264:	8fa2002c 	lw	v0,44(sp)
  404268:	24020058 	li	v0,88
  40426c:	1582011b 	bne	t4,v0,4046dc <_nl_load_domain+0x172c>
  404270:	00601025 	move	v0,v1
  404274:	1000fc0f 	b	4032b4 <_nl_load_domain+0x304>
  404278:	24a50001 	addiu	a1,a1,1
  40427c:	80590007 	lb	t9,7(v0)
  404280:	132f000c 	beq	t9,t7,4042b4 <_nl_load_domain+0x1304>
  404284:	00000000 	nop
  404288:	1000fc09 	b	4032b0 <_nl_load_domain+0x300>
  40428c:	00001025 	move	v0,zero
  404290:	80590008 	lb	t9,8(v0)
  404294:	132f008b 	beq	t9,t7,4044c4 <_nl_load_domain+0x1514>
  404298:	00000000 	nop
  40429c:	1000fc04 	b	4032b0 <_nl_load_domain+0x300>
  4042a0:	00001025 	move	v0,zero
  4042a4:	1000fc02 	b	4032b0 <_nl_load_domain+0x300>
  4042a8:	8fa20024 	lw	v0,36(sp)
  4042ac:	1000fc00 	b	4032b0 <_nl_load_domain+0x300>
  4042b0:	00001025 	move	v0,zero
  4042b4:	804f0008 	lb	t7,8(v0)
  4042b8:	11f8004e 	beq	t7,t8,4043f4 <_nl_load_domain+0x1444>
  4042bc:	24180031 	li	t8,49
  4042c0:	11f80046 	beq	t7,t8,4043dc <_nl_load_domain+0x142c>
  4042c4:	24180033 	li	t8,51
  4042c8:	15f80020 	bne	t7,t8,40434c <_nl_load_domain+0x139c>
  4042cc:	24180036 	li	t8,54
  4042d0:	80580009 	lb	t8,9(v0)
  4042d4:	240f0032 	li	t7,50
  4042d8:	130f0005 	beq	t8,t7,4042f0 <_nl_load_domain+0x1340>
  4042dc:	00000000 	nop
  4042e0:	1000fbf3 	b	4032b0 <_nl_load_domain+0x300>
  4042e4:	00001025 	move	v0,zero
  4042e8:	1000fbf1 	b	4032b0 <_nl_load_domain+0x300>
  4042ec:	00001025 	move	v0,zero
  4042f0:	8042000a 	lb	v0,10(v0)
  4042f4:	1440fbee 	bnez	v0,4032b0 <_nl_load_domain+0x300>
  4042f8:	00001025 	move	v0,zero
  4042fc:	24020064 	li	v0,100
  404300:	1182fbeb 	beq	t4,v0,4032b0 <_nl_load_domain+0x300>
  404304:	01c01025 	move	v0,t6
  404308:	24020069 	li	v0,105
  40430c:	1182fbe8 	beq	t4,v0,4032b0 <_nl_load_domain+0x300>
  404310:	01a01025 	move	v0,t5
  404314:	2402006f 	li	v0,111
  404318:	1182fbe5 	beq	t4,v0,4032b0 <_nl_load_domain+0x300>
  40431c:	8fa20024 	lw	v0,36(sp)
  404320:	24020075 	li	v0,117
  404324:	1182fbe2 	beq	t4,v0,4032b0 <_nl_load_domain+0x300>
  404328:	8fa20028 	lw	v0,40(sp)
  40432c:	24020078 	li	v0,120
  404330:	1182fbdf 	beq	t4,v0,4032b0 <_nl_load_domain+0x300>
  404334:	8fa2002c 	lw	v0,44(sp)
  404338:	24020058 	li	v0,88
  40433c:	158200e7 	bne	t4,v0,4046dc <_nl_load_domain+0x172c>
  404340:	00601025 	move	v0,v1
  404344:	1000fbdb 	b	4032b4 <_nl_load_domain+0x304>
  404348:	24a50001 	addiu	a1,a1,1
  40434c:	15f8001d 	bne	t7,t8,4043c4 <_nl_load_domain+0x1414>
  404350:	240f0034 	li	t7,52
  404354:	80580009 	lb	t8,9(v0)
  404358:	130f0003 	beq	t8,t7,404368 <_nl_load_domain+0x13b8>
  40435c:	00000000 	nop
  404360:	1000fbd3 	b	4032b0 <_nl_load_domain+0x300>
  404364:	00001025 	move	v0,zero
  404368:	8042000a 	lb	v0,10(v0)
  40436c:	1440fbd0 	bnez	v0,4032b0 <_nl_load_domain+0x300>
  404370:	00001025 	move	v0,zero
  404374:	24020064 	li	v0,100
  404378:	1182fbcd 	beq	t4,v0,4032b0 <_nl_load_domain+0x300>
  40437c:	01201025 	move	v0,t1
  404380:	24020069 	li	v0,105
  404384:	1182fbca 	beq	t4,v0,4032b0 <_nl_load_domain+0x300>
  404388:	01001025 	move	v0,t0
  40438c:	2402006f 	li	v0,111
  404390:	1182fbc7 	beq	t4,v0,4032b0 <_nl_load_domain+0x300>
  404394:	03e01025 	move	v0,ra
  404398:	24020075 	li	v0,117
  40439c:	1182000d 	beq	t4,v0,4043d4 <_nl_load_domain+0x1424>
  4043a0:	8fa20030 	lw	v0,48(sp)
  4043a4:	24020078 	li	v0,120
  4043a8:	11820008 	beq	t4,v0,4043cc <_nl_load_domain+0x141c>
  4043ac:	3c020046 	lui	v0,0x46
  4043b0:	24020058 	li	v0,88
  4043b4:	158200c9 	bne	t4,v0,4046dc <_nl_load_domain+0x172c>
  4043b8:	3c020046 	lui	v0,0x46
  4043bc:	1000fbbc 	b	4032b0 <_nl_load_domain+0x300>
  4043c0:	244276c8 	addiu	v0,v0,30408
  4043c4:	1000fbba 	b	4032b0 <_nl_load_domain+0x300>
  4043c8:	00001025 	move	v0,zero
  4043cc:	1000fbb8 	b	4032b0 <_nl_load_domain+0x300>
  4043d0:	244276cc 	addiu	v0,v0,30412
  4043d4:	1000fbb6 	b	4032b0 <_nl_load_domain+0x300>
  4043d8:	244276bc 	addiu	v0,v0,30396
  4043dc:	80580009 	lb	t8,9(v0)
  4043e0:	240f0036 	li	t7,54
  4043e4:	130f001a 	beq	t8,t7,404450 <_nl_load_domain+0x14a0>
  4043e8:	00000000 	nop
  4043ec:	1000fbb0 	b	4032b0 <_nl_load_domain+0x300>
  4043f0:	00001025 	move	v0,zero
  4043f4:	80420009 	lb	v0,9(v0)
  4043f8:	1440fbad 	bnez	v0,4032b0 <_nl_load_domain+0x300>
  4043fc:	00001025 	move	v0,zero
  404400:	24020064 	li	v0,100
  404404:	1182fbaa 	beq	t4,v0,4032b0 <_nl_load_domain+0x300>
  404408:	01c01025 	move	v0,t6
  40440c:	24020069 	li	v0,105
  404410:	1182fba7 	beq	t4,v0,4032b0 <_nl_load_domain+0x300>
  404414:	01a01025 	move	v0,t5
  404418:	2402006f 	li	v0,111
  40441c:	1182fba4 	beq	t4,v0,4032b0 <_nl_load_domain+0x300>
  404420:	8fa20024 	lw	v0,36(sp)
  404424:	24020075 	li	v0,117
  404428:	1182fba1 	beq	t4,v0,4032b0 <_nl_load_domain+0x300>
  40442c:	8fa20028 	lw	v0,40(sp)
  404430:	24020078 	li	v0,120
  404434:	1182fb9e 	beq	t4,v0,4032b0 <_nl_load_domain+0x300>
  404438:	8fa2002c 	lw	v0,44(sp)
  40443c:	24020058 	li	v0,88
  404440:	158200a6 	bne	t4,v0,4046dc <_nl_load_domain+0x172c>
  404444:	00601025 	move	v0,v1
  404448:	1000fb9a 	b	4032b4 <_nl_load_domain+0x304>
  40444c:	24a50001 	addiu	a1,a1,1
  404450:	8042000a 	lb	v0,10(v0)
  404454:	1440fb96 	bnez	v0,4032b0 <_nl_load_domain+0x300>
  404458:	00001025 	move	v0,zero
  40445c:	24020064 	li	v0,100
  404460:	1182fb93 	beq	t4,v0,4032b0 <_nl_load_domain+0x300>
  404464:	01c01025 	move	v0,t6
  404468:	24020069 	li	v0,105
  40446c:	1182fb90 	beq	t4,v0,4032b0 <_nl_load_domain+0x300>
  404470:	01a01025 	move	v0,t5
  404474:	2402006f 	li	v0,111
  404478:	1182fb8d 	beq	t4,v0,4032b0 <_nl_load_domain+0x300>
  40447c:	8fa20024 	lw	v0,36(sp)
  404480:	24020075 	li	v0,117
  404484:	1182fb8a 	beq	t4,v0,4032b0 <_nl_load_domain+0x300>
  404488:	8fa20028 	lw	v0,40(sp)
  40448c:	24020078 	li	v0,120
  404490:	1182fb87 	beq	t4,v0,4032b0 <_nl_load_domain+0x300>
  404494:	8fa2002c 	lw	v0,44(sp)
  404498:	24020058 	li	v0,88
  40449c:	1582008f 	bne	t4,v0,4046dc <_nl_load_domain+0x172c>
  4044a0:	00601025 	move	v0,v1
  4044a4:	1000fb83 	b	4032b4 <_nl_load_domain+0x304>
  4044a8:	24a50001 	addiu	a1,a1,1
  4044ac:	1000fb80 	b	4032b0 <_nl_load_domain+0x300>
  4044b0:	8fa2002c 	lw	v0,44(sp)
  4044b4:	1000fb7e 	b	4032b0 <_nl_load_domain+0x300>
  4044b8:	00001025 	move	v0,zero
  4044bc:	1000fb7c 	b	4032b0 <_nl_load_domain+0x300>
  4044c0:	8fa2002c 	lw	v0,44(sp)
  4044c4:	804f0009 	lb	t7,9(v0)
  4044c8:	11f8004c 	beq	t7,t8,4045fc <_nl_load_domain+0x164c>
  4044cc:	24180031 	li	t8,49
  4044d0:	11f80044 	beq	t7,t8,4045e4 <_nl_load_domain+0x1634>
  4044d4:	24180033 	li	t8,51
  4044d8:	15f8001e 	bne	t7,t8,404554 <_nl_load_domain+0x15a4>
  4044dc:	24180036 	li	t8,54
  4044e0:	8058000a 	lb	t8,10(v0)
  4044e4:	240f0032 	li	t7,50
  4044e8:	130f0003 	beq	t8,t7,4044f8 <_nl_load_domain+0x1548>
  4044ec:	00000000 	nop
  4044f0:	1000fb6f 	b	4032b0 <_nl_load_domain+0x300>
  4044f4:	00001025 	move	v0,zero
  4044f8:	8042000b 	lb	v0,11(v0)
  4044fc:	1440fb6c 	bnez	v0,4032b0 <_nl_load_domain+0x300>
  404500:	00001025 	move	v0,zero
  404504:	24020064 	li	v0,100
  404508:	1182fb69 	beq	t4,v0,4032b0 <_nl_load_domain+0x300>
  40450c:	01c01025 	move	v0,t6
  404510:	24020069 	li	v0,105
  404514:	1182fb66 	beq	t4,v0,4032b0 <_nl_load_domain+0x300>
  404518:	01a01025 	move	v0,t5
  40451c:	2402006f 	li	v0,111
  404520:	1182fb63 	beq	t4,v0,4032b0 <_nl_load_domain+0x300>
  404524:	8fa20024 	lw	v0,36(sp)
  404528:	24020075 	li	v0,117
  40452c:	1182fb60 	beq	t4,v0,4032b0 <_nl_load_domain+0x300>
  404530:	8fa20028 	lw	v0,40(sp)
  404534:	24020078 	li	v0,120
  404538:	1182fb5d 	beq	t4,v0,4032b0 <_nl_load_domain+0x300>
  40453c:	8fa2002c 	lw	v0,44(sp)
  404540:	24020058 	li	v0,88
  404544:	15820065 	bne	t4,v0,4046dc <_nl_load_domain+0x172c>
  404548:	00601025 	move	v0,v1
  40454c:	1000fb59 	b	4032b4 <_nl_load_domain+0x304>
  404550:	24a50001 	addiu	a1,a1,1
  404554:	15f8001d 	bne	t7,t8,4045cc <_nl_load_domain+0x161c>
  404558:	240f0034 	li	t7,52
  40455c:	8058000a 	lb	t8,10(v0)
  404560:	130f0003 	beq	t8,t7,404570 <_nl_load_domain+0x15c0>
  404564:	00000000 	nop
  404568:	1000fb51 	b	4032b0 <_nl_load_domain+0x300>
  40456c:	00001025 	move	v0,zero
  404570:	8042000b 	lb	v0,11(v0)
  404574:	1440fb4e 	bnez	v0,4032b0 <_nl_load_domain+0x300>
  404578:	00001025 	move	v0,zero
  40457c:	24020064 	li	v0,100
  404580:	1182fb4b 	beq	t4,v0,4032b0 <_nl_load_domain+0x300>
  404584:	01201025 	move	v0,t1
  404588:	24020069 	li	v0,105
  40458c:	1182fb48 	beq	t4,v0,4032b0 <_nl_load_domain+0x300>
  404590:	01001025 	move	v0,t0
  404594:	2402006f 	li	v0,111
  404598:	1182fb45 	beq	t4,v0,4032b0 <_nl_load_domain+0x300>
  40459c:	03e01025 	move	v0,ra
  4045a0:	24020075 	li	v0,117
  4045a4:	1182000d 	beq	t4,v0,4045dc <_nl_load_domain+0x162c>
  4045a8:	8fa20030 	lw	v0,48(sp)
  4045ac:	24020078 	li	v0,120
  4045b0:	11820008 	beq	t4,v0,4045d4 <_nl_load_domain+0x1624>
  4045b4:	3c020046 	lui	v0,0x46
  4045b8:	24020058 	li	v0,88
  4045bc:	15820047 	bne	t4,v0,4046dc <_nl_load_domain+0x172c>
  4045c0:	3c020046 	lui	v0,0x46
  4045c4:	1000fb3a 	b	4032b0 <_nl_load_domain+0x300>
  4045c8:	244276c8 	addiu	v0,v0,30408
  4045cc:	1000fb38 	b	4032b0 <_nl_load_domain+0x300>
  4045d0:	00001025 	move	v0,zero
  4045d4:	1000fb36 	b	4032b0 <_nl_load_domain+0x300>
  4045d8:	244276cc 	addiu	v0,v0,30412
  4045dc:	1000fb34 	b	4032b0 <_nl_load_domain+0x300>
  4045e0:	244276bc 	addiu	v0,v0,30396
  4045e4:	8058000a 	lb	t8,10(v0)
  4045e8:	240f0036 	li	t7,54
  4045ec:	130f001a 	beq	t8,t7,404658 <_nl_load_domain+0x16a8>
  4045f0:	00000000 	nop
  4045f4:	1000fb2e 	b	4032b0 <_nl_load_domain+0x300>
  4045f8:	00001025 	move	v0,zero
  4045fc:	8042000a 	lb	v0,10(v0)
  404600:	1440fb2b 	bnez	v0,4032b0 <_nl_load_domain+0x300>
  404604:	00001025 	move	v0,zero
  404608:	24020064 	li	v0,100
  40460c:	1182fb28 	beq	t4,v0,4032b0 <_nl_load_domain+0x300>
  404610:	01c01025 	move	v0,t6
  404614:	24020069 	li	v0,105
  404618:	1182fb25 	beq	t4,v0,4032b0 <_nl_load_domain+0x300>
  40461c:	01a01025 	move	v0,t5
  404620:	2402006f 	li	v0,111
  404624:	1182fb22 	beq	t4,v0,4032b0 <_nl_load_domain+0x300>
  404628:	8fa20024 	lw	v0,36(sp)
  40462c:	24020075 	li	v0,117
  404630:	1182fb1f 	beq	t4,v0,4032b0 <_nl_load_domain+0x300>
  404634:	8fa20028 	lw	v0,40(sp)
  404638:	24020078 	li	v0,120
  40463c:	1182fb1c 	beq	t4,v0,4032b0 <_nl_load_domain+0x300>
  404640:	8fa2002c 	lw	v0,44(sp)
  404644:	24020058 	li	v0,88
  404648:	15820024 	bne	t4,v0,4046dc <_nl_load_domain+0x172c>
  40464c:	00601025 	move	v0,v1
  404650:	1000fb18 	b	4032b4 <_nl_load_domain+0x304>
  404654:	24a50001 	addiu	a1,a1,1
  404658:	8042000b 	lb	v0,11(v0)
  40465c:	1440fb14 	bnez	v0,4032b0 <_nl_load_domain+0x300>
  404660:	00001025 	move	v0,zero
  404664:	24020064 	li	v0,100
  404668:	1182fb11 	beq	t4,v0,4032b0 <_nl_load_domain+0x300>
  40466c:	01c01025 	move	v0,t6
  404670:	24020069 	li	v0,105
  404674:	1182fb0e 	beq	t4,v0,4032b0 <_nl_load_domain+0x300>
  404678:	01a01025 	move	v0,t5
  40467c:	2402006f 	li	v0,111
  404680:	1182fb0b 	beq	t4,v0,4032b0 <_nl_load_domain+0x300>
  404684:	8fa20024 	lw	v0,36(sp)
  404688:	24020075 	li	v0,117
  40468c:	1182fb08 	beq	t4,v0,4032b0 <_nl_load_domain+0x300>
  404690:	8fa20028 	lw	v0,40(sp)
  404694:	24020078 	li	v0,120
  404698:	1182fb05 	beq	t4,v0,4032b0 <_nl_load_domain+0x300>
  40469c:	8fa2002c 	lw	v0,44(sp)
  4046a0:	24020058 	li	v0,88
  4046a4:	1582000d 	bne	t4,v0,4046dc <_nl_load_domain+0x172c>
  4046a8:	00601025 	move	v0,v1
  4046ac:	1000fb01 	b	4032b4 <_nl_load_domain+0x304>
  4046b0:	24a50001 	addiu	a1,a1,1
  4046b4:	1000fafe 	b	4032b0 <_nl_load_domain+0x300>
  4046b8:	8fa2002c 	lw	v0,44(sp)
  4046bc:	1000fafc 	b	4032b0 <_nl_load_domain+0x300>
  4046c0:	244276cc 	addiu	v0,v0,30412
  4046c4:	1000fafa 	b	4032b0 <_nl_load_domain+0x300>
  4046c8:	244276bc 	addiu	v0,v0,30396
  4046cc:	1000faf8 	b	4032b0 <_nl_load_domain+0x300>
  4046d0:	244276cc 	addiu	v0,v0,30412
  4046d4:	1000faf6 	b	4032b0 <_nl_load_domain+0x300>
  4046d8:	244276bc 	addiu	v0,v0,30396
  4046dc:	3c190040 	lui	t9,0x40
  4046e0:	273902d0 	addiu	t9,t9,720
  4046e4:	0411eefa 	bal	4002d0 <abort>
  4046e8:	00000000 	nop
  4046ec:	00000000 	nop

004046f0 <alias_compare>:
  4046f0:	3c060049 	lui	a2,0x49
  4046f4:	8c840000 	lw	a0,0(a0)
  4046f8:	3c190042 	lui	t9,0x42
  4046fc:	8ca50000 	lw	a1,0(a1)
  404700:	2739ac40 	addiu	t9,t9,-21440
  404704:	1000594e 	b	41ac40 <__strcasecmp_l>
  404708:	24c637a4 	addiu	a2,a2,14244

0040470c <read_alias_file>:
  40470c:	3c1c004a 	lui	gp,0x4a
  404710:	24a20015 	addiu	v0,a1,21
  404714:	279ccae0 	addiu	gp,gp,-13600
  404718:	27bdfde8 	addiu	sp,sp,-536
  40471c:	000210c2 	srl	v0,v0,0x3
  404720:	8f838038 	lw	v1,-32712(gp)
  404724:	8f998088 	lw	t9,-32632(gp)
  404728:	000210c0 	sll	v0,v0,0x3
  40472c:	afbe0210 	sw	s8,528(sp)
  404730:	03a0f025 	move	s8,sp
  404734:	afbf0214 	sw	ra,532(sp)
  404738:	afb001f0 	sw	s0,496(sp)
  40473c:	00a08025 	move	s0,a1
  404740:	afbc0010 	sw	gp,16(sp)
  404744:	00802825 	move	a1,a0
  404748:	afb7020c 	sw	s7,524(sp)
  40474c:	02003025 	move	a2,s0
  404750:	afb60208 	sw	s6,520(sp)
  404754:	afb50204 	sw	s5,516(sp)
  404758:	afb40200 	sw	s4,512(sp)
  40475c:	afb301fc 	sw	s3,508(sp)
  404760:	afb201f8 	sw	s2,504(sp)
  404764:	afb101f4 	sw	s1,500(sp)
  404768:	03a2e823 	subu	sp,sp,v0
  40476c:	afc30044 	sw	v1,68(s8)
  404770:	8c630000 	lw	v1,0(v1)
  404774:	27a40010 	addiu	a0,sp,16
  404778:	afc301ec 	sw	v1,492(s8)
  40477c:	04115948 	bal	41aca0 <memcpy>
  404780:	00000000 	nop
  404784:	3c050046 	lui	a1,0x46
  404788:	00402025 	move	a0,v0
  40478c:	8fdc0010 	lw	gp,16(s8)
  404790:	24a376d8 	addiu	v1,a1,30424
  404794:	00501021 	addu	v0,v0,s0
  404798:	8ca876d8 	lw	t0,30424(a1)
  40479c:	3c050046 	lui	a1,0x46
  4047a0:	8c670004 	lw	a3,4(v1)
  4047a4:	8c660008 	lw	a2,8(v1)
  4047a8:	24a576d4 	addiu	a1,a1,30420
  4047ac:	9069000c 	lbu	t1,12(v1)
  4047b0:	9063000d 	lbu	v1,13(v1)
  4047b4:	8f9980bc 	lw	t9,-32580(gp)
  4047b8:	a8480000 	swl	t0,0(v0)
  4047bc:	b8480003 	swr	t0,3(v0)
  4047c0:	a8470004 	swl	a3,4(v0)
  4047c4:	b8470007 	swr	a3,7(v0)
  4047c8:	a8460008 	swl	a2,8(v0)
  4047cc:	b846000b 	swr	a2,11(v0)
  4047d0:	a049000c 	sb	t1,12(v0)
  4047d4:	041110cd 	bal	408b0c <_IO_new_fopen>
  4047d8:	a043000d 	sb	v1,13(v0)
  4047dc:	1040012a 	beqz	v0,404c88 <read_alias_file+0x57c>
  4047e0:	8fdc0010 	lw	gp,16(s8)
  4047e4:	00409025 	move	s2,v0
  4047e8:	8c420000 	lw	v0,0(v0)
  4047ec:	34438000 	ori	v1,v0,0x8000
  4047f0:	30420010 	andi	v0,v0,0x10
  4047f4:	14400138 	bnez	v0,404cd8 <read_alias_file+0x5cc>
  4047f8:	ae430000 	sw	v1,0(s2)
  4047fc:	3c020049 	lui	v0,0x49
  404800:	8f958398 	lw	s5,-31848(gp)
  404804:	3c130041 	lui	s3,0x41
  404808:	afc00054 	sw	zero,84(s8)
  40480c:	afc2004c 	sw	v0,76(s8)
  404810:	3c020042 	lui	v0,0x42
  404814:	3c140042 	lui	s4,0x42
  404818:	24429b70 	addiu	v0,v0,-25744
  40481c:	7c03e83b 	rdhwr	v1,$29
  404820:	27d1005c 	addiu	s1,s8,92
  404824:	afc20048 	sw	v0,72(s8)
  404828:	2673b610 	addiu	s3,s3,-18928
  40482c:	26949560 	addiu	s4,s4,-27296
  404830:	02a3a821 	addu	s5,s5,v1
  404834:	24050190 	li	a1,400
  404838:	02403025 	move	a2,s2
  40483c:	0260c825 	move	t9,s3
  404840:	04111b73 	bal	40b610 <__fgets_unlocked>
  404844:	02202025 	move	a0,s1
  404848:	10400022 	beqz	v0,4048d4 <read_alias_file+0x1c8>
  40484c:	8fdc0010 	lw	gp,16(s8)
  404850:	2405000a 	li	a1,10
  404854:	0280c825 	move	t9,s4
  404858:	04115341 	bal	419560 <strchr>
  40485c:	02202025 	move	a0,s1
  404860:	02208025 	move	s0,s1
  404864:	83c3005c 	lb	v1,92(s8)
  404868:	00403825 	move	a3,v0
  40486c:	8ea40000 	lw	a0,0(s5)
  404870:	306200ff 	andi	v0,v1,0xff
  404874:	00021040 	sll	v0,v0,0x1
  404878:	00821021 	addu	v0,a0,v0
  40487c:	94420000 	lhu	v0,0(v0)
  404880:	30420020 	andi	v0,v0,0x20
  404884:	10400009 	beqz	v0,4048ac <read_alias_file+0x1a0>
  404888:	8fdc0010 	lw	gp,16(s8)
  40488c:	82030001 	lb	v1,1(s0)
  404890:	306200ff 	andi	v0,v1,0xff
  404894:	00021040 	sll	v0,v0,0x1
  404898:	00821021 	addu	v0,a0,v0
  40489c:	94420000 	lhu	v0,0(v0)
  4048a0:	30420020 	andi	v0,v0,0x20
  4048a4:	1440fff9 	bnez	v0,40488c <read_alias_file+0x180>
  4048a8:	26100001 	addiu	s0,s0,1
  4048ac:	10600003 	beqz	v1,4048bc <read_alias_file+0x1b0>
  4048b0:	24020023 	li	v0,35
  4048b4:	14620039 	bne	v1,v0,40499c <read_alias_file+0x290>
  4048b8:	00000000 	nop
  4048bc:	10e0002f 	beqz	a3,40497c <read_alias_file+0x270>
  4048c0:	24050190 	li	a1,400
  4048c4:	8e420000 	lw	v0,0(s2)
  4048c8:	30420010 	andi	v0,v0,0x10
  4048cc:	1040ffda 	beqz	v0,404838 <read_alias_file+0x12c>
  4048d0:	24050190 	li	a1,400
  4048d4:	8f9980c0 	lw	t9,-32576(gp)
  4048d8:	04110ed1 	bal	408420 <_IO_new_fclose>
  4048dc:	02402025 	move	a0,s2
  4048e0:	8fc20054 	lw	v0,84(s8)
  4048e4:	1040000c 	beqz	v0,404918 <read_alias_file+0x20c>
  4048e8:	8fdc0010 	lw	gp,16(s8)
  4048ec:	3c020049 	lui	v0,0x49
  4048f0:	3c070040 	lui	a3,0x40
  4048f4:	3c190040 	lui	t9,0x40
  4048f8:	8c4553c8 	lw	a1,21448(v0)
  4048fc:	3c020049 	lui	v0,0x49
  404900:	24e746f0 	addiu	a3,a3,18160
  404904:	24060008 	li	a2,8
  404908:	27396e3c 	addiu	t9,t9,28220
  40490c:	0411094b 	bal	406e3c <qsort>
  404910:	8c445ca0 	lw	a0,23712(v0)
  404914:	8fdc0010 	lw	gp,16(s8)
  404918:	8fc20044 	lw	v0,68(s8)
  40491c:	8fc301ec 	lw	v1,492(s8)
  404920:	8c420000 	lw	v0,0(v0)
  404924:	146200f2 	bne	v1,v0,404cf0 <read_alias_file+0x5e4>
  404928:	8fc20054 	lw	v0,84(s8)
  40492c:	03c0e825 	move	sp,s8
  404930:	8fbf0214 	lw	ra,532(sp)
  404934:	8fbe0210 	lw	s8,528(sp)
  404938:	8fb7020c 	lw	s7,524(sp)
  40493c:	8fb60208 	lw	s6,520(sp)
  404940:	8fb50204 	lw	s5,516(sp)
  404944:	8fb40200 	lw	s4,512(sp)
  404948:	8fb301fc 	lw	s3,508(sp)
  40494c:	8fb201f8 	lw	s2,504(sp)
  404950:	8fb101f4 	lw	s1,500(sp)
  404954:	8fb001f0 	lw	s0,496(sp)
  404958:	03e00008 	jr	ra
  40495c:	27bd0218 	addiu	sp,sp,536
  404960:	2405000a 	li	a1,10
  404964:	0280c825 	move	t9,s4
  404968:	041152fd 	bal	419560 <strchr>
  40496c:	02202025 	move	a0,s1
  404970:	1440ffd4 	bnez	v0,4048c4 <read_alias_file+0x1b8>
  404974:	8fdc0010 	lw	gp,16(s8)
  404978:	24050190 	li	a1,400
  40497c:	02403025 	move	a2,s2
  404980:	0260c825 	move	t9,s3
  404984:	04111b22 	bal	40b610 <__fgets_unlocked>
  404988:	02202025 	move	a0,s1
  40498c:	1440fff4 	bnez	v0,404960 <read_alias_file+0x254>
  404990:	8fdc0010 	lw	gp,16(s8)
  404994:	1000ffcc 	b	4048c8 <read_alias_file+0x1bc>
  404998:	8e420000 	lw	v0,0(s2)
  40499c:	82050001 	lb	a1,1(s0)
  4049a0:	14a00005 	bnez	a1,4049b8 <read_alias_file+0x2ac>
  4049a4:	26160001 	addiu	s6,s0,1
  4049a8:	10000017 	b	404a08 <read_alias_file+0x2fc>
  4049ac:	30a200ff 	andi	v0,a1,0xff
  4049b0:	10a00015 	beqz	a1,404a08 <read_alias_file+0x2fc>
  4049b4:	30a200ff 	andi	v0,a1,0xff
  4049b8:	30a200ff 	andi	v0,a1,0xff
  4049bc:	82c50001 	lb	a1,1(s6)
  4049c0:	00021040 	sll	v0,v0,0x1
  4049c4:	02c03025 	move	a2,s6
  4049c8:	00821021 	addu	v0,a0,v0
  4049cc:	94420000 	lhu	v0,0(v0)
  4049d0:	30420020 	andi	v0,v0,0x20
  4049d4:	1040fff6 	beqz	v0,4049b0 <read_alias_file+0x2a4>
  4049d8:	26d60001 	addiu	s6,s6,1
  4049dc:	30a200ff 	andi	v0,a1,0xff
  4049e0:	a0c00000 	sb	zero,0(a2)
  4049e4:	00021040 	sll	v0,v0,0x1
  4049e8:	00821021 	addu	v0,a0,v0
  4049ec:	94420000 	lhu	v0,0(v0)
  4049f0:	30420020 	andi	v0,v0,0x20
  4049f4:	1040000a 	beqz	v0,404a20 <read_alias_file+0x314>
  4049f8:	00000000 	nop
  4049fc:	82c50001 	lb	a1,1(s6)
  404a00:	26d60001 	addiu	s6,s6,1
  404a04:	30a200ff 	andi	v0,a1,0xff
  404a08:	00021040 	sll	v0,v0,0x1
  404a0c:	00821021 	addu	v0,a0,v0
  404a10:	94420000 	lhu	v0,0(v0)
  404a14:	30420020 	andi	v0,v0,0x20
  404a18:	1440fff8 	bnez	v0,4049fc <read_alias_file+0x2f0>
  404a1c:	00000000 	nop
  404a20:	10a0ffa6 	beqz	a1,4048bc <read_alias_file+0x1b0>
  404a24:	00000000 	nop
  404a28:	82c50001 	lb	a1,1(s6)
  404a2c:	14a00006 	bnez	a1,404a48 <read_alias_file+0x33c>
  404a30:	26c60001 	addiu	a2,s6,1
  404a34:	10000010 	b	404a78 <read_alias_file+0x36c>
  404a38:	8fc2004c 	lw	v0,76(s8)
  404a3c:	80c50001 	lb	a1,1(a2)
  404a40:	10a0000c 	beqz	a1,404a74 <read_alias_file+0x368>
  404a44:	24c60001 	addiu	a2,a2,1
  404a48:	30a200ff 	andi	v0,a1,0xff
  404a4c:	00021040 	sll	v0,v0,0x1
  404a50:	00821021 	addu	v0,a0,v0
  404a54:	94420000 	lhu	v0,0(v0)
  404a58:	30420020 	andi	v0,v0,0x20
  404a5c:	1040fff7 	beqz	v0,404a3c <read_alias_file+0x330>
  404a60:	2402000a 	li	v0,10
  404a64:	14a20084 	bne	a1,v0,404c78 <read_alias_file+0x56c>
  404a68:	00000000 	nop
  404a6c:	a0c00000 	sb	zero,0(a2)
  404a70:	a0c50001 	sb	a1,1(a2)
  404a74:	8fc2004c 	lw	v0,76(s8)
  404a78:	3c170049 	lui	s7,0x49
  404a7c:	8ee553c4 	lw	a1,21444(s7)
  404a80:	8c4253c8 	lw	v0,21448(v0)
  404a84:	afc20050 	sw	v0,80(s8)
  404a88:	0045102b 	sltu	v0,v0,a1
  404a8c:	10400067 	beqz	v0,404c2c <read_alias_file+0x520>
  404a90:	00000000 	nop
  404a94:	8fd90048 	lw	t9,72(s8)
  404a98:	02002025 	move	a0,s0
  404a9c:	0320f809 	jalr	t9
  404aa0:	afc7003c 	sw	a3,60(s8)
  404aa4:	02c02025 	move	a0,s6
  404aa8:	24460001 	addiu	a2,v0,1
  404aac:	8fd90048 	lw	t9,72(s8)
  404ab0:	0320f809 	jalr	t9
  404ab4:	afc60040 	sw	a2,64(s8)
  404ab8:	3c0a0049 	lui	t2,0x49
  404abc:	8fc60040 	lw	a2,64(s8)
  404ac0:	3c0e0049 	lui	t6,0x49
  404ac4:	24490001 	addiu	t1,v0,1
  404ac8:	8fdc0010 	lw	gp,16(s8)
  404acc:	8d4d53d0 	lw	t5,21456(t2)
  404ad0:	3c0f0049 	lui	t7,0x49
  404ad4:	8dc253cc 	lw	v0,21452(t6)
  404ad8:	8fc7003c 	lw	a3,60(s8)
  404adc:	01a66021 	addu	t4,t5,a2
  404ae0:	01895821 	addu	t3,t4,t1
  404ae4:	004b282b 	sltu	a1,v0,t3
  404ae8:	10a00028 	beqz	a1,404b8c <read_alias_file+0x480>
  404aec:	8de45ca4 	lw	a0,23716(t7)
  404af0:	00c9b821 	addu	s7,a2,t1
  404af4:	8f9980a0 	lw	t9,-32608(gp)
  404af8:	24050400 	li	a1,1024
  404afc:	afca001c 	sw	t2,28(s8)
  404b00:	2ee80400 	sltiu	t0,s7,1024
  404b04:	afcf0020 	sw	t7,32(s8)
  404b08:	00a8b80b 	movn	s7,a1,t0
  404b0c:	afce0024 	sw	t6,36(s8)
  404b10:	afcb0028 	sw	t3,40(s8)
  404b14:	02e2b821 	addu	s7,s7,v0
  404b18:	afcc002c 	sw	t4,44(s8)
  404b1c:	afcd0030 	sw	t5,48(s8)
  404b20:	afc70034 	sw	a3,52(s8)
  404b24:	02e02825 	move	a1,s7
  404b28:	afc90038 	sw	t1,56(s8)
  404b2c:	afc6003c 	sw	a2,60(s8)
  404b30:	04114cf9 	bal	417f18 <__libc_realloc>
  404b34:	afc40040 	sw	a0,64(s8)
  404b38:	8fdc0010 	lw	gp,16(s8)
  404b3c:	1040ff65 	beqz	v0,4048d4 <read_alias_file+0x1c8>
  404b40:	00404025 	move	t0,v0
  404b44:	3c020049 	lui	v0,0x49
  404b48:	8fc40040 	lw	a0,64(s8)
  404b4c:	8fc6003c 	lw	a2,60(s8)
  404b50:	8fc90038 	lw	t1,56(s8)
  404b54:	8c585ca0 	lw	t8,23712(v0)
  404b58:	8fc70034 	lw	a3,52(s8)
  404b5c:	8fcd0030 	lw	t5,48(s8)
  404b60:	8fcc002c 	lw	t4,44(s8)
  404b64:	8fcb0028 	lw	t3,40(s8)
  404b68:	8fce0024 	lw	t6,36(s8)
  404b6c:	8fcf0020 	lw	t7,32(s8)
  404b70:	8fca001c 	lw	t2,28(s8)
  404b74:	15040046 	bne	t0,a0,404c90 <read_alias_file+0x584>
  404b78:	8fc20050 	lw	v0,80(s8)
  404b7c:	000228c0 	sll	a1,v0,0x3
  404b80:	ade85ca4 	sw	t0,23716(t7)
  404b84:	10000006 	b	404ba0 <read_alias_file+0x494>
  404b88:	add753cc 	sw	s7,21452(t6)
  404b8c:	8fc20050 	lw	v0,80(s8)
  404b90:	00804025 	move	t0,a0
  404b94:	000228c0 	sll	a1,v0,0x3
  404b98:	3c020049 	lui	v0,0x49
  404b9c:	8c585ca0 	lw	t8,23712(v0)
  404ba0:	8f998088 	lw	t9,-32632(gp)
  404ba4:	010d2021 	addu	a0,t0,t5
  404ba8:	0305b821 	addu	s7,t8,a1
  404bac:	afca002c 	sw	t2,44(s8)
  404bb0:	afcb0034 	sw	t3,52(s8)
  404bb4:	02002825 	move	a1,s0
  404bb8:	afc7003c 	sw	a3,60(s8)
  404bbc:	afc90030 	sw	t1,48(s8)
  404bc0:	afcc0038 	sw	t4,56(s8)
  404bc4:	04115836 	bal	41aca0 <memcpy>
  404bc8:	afc80040 	sw	t0,64(s8)
  404bcc:	02c02825 	move	a1,s6
  404bd0:	8fdc0010 	lw	gp,16(s8)
  404bd4:	8fc80040 	lw	t0,64(s8)
  404bd8:	8fcc0038 	lw	t4,56(s8)
  404bdc:	8fc90030 	lw	t1,48(s8)
  404be0:	8f998088 	lw	t9,-32632(gp)
  404be4:	010c2021 	addu	a0,t0,t4
  404be8:	aee20000 	sw	v0,0(s7)
  404bec:	0411582c 	bal	41aca0 <memcpy>
  404bf0:	01203025 	move	a2,t1
  404bf4:	8fc30050 	lw	v1,80(s8)
  404bf8:	8fdc0010 	lw	gp,16(s8)
  404bfc:	8fca002c 	lw	t2,44(s8)
  404c00:	24760001 	addiu	s6,v1,1
  404c04:	8fc30054 	lw	v1,84(s8)
  404c08:	8fcb0034 	lw	t3,52(s8)
  404c0c:	8fc7003c 	lw	a3,60(s8)
  404c10:	aee20004 	sw	v0,4(s7)
  404c14:	24630001 	addiu	v1,v1,1
  404c18:	ad4b53d0 	sw	t3,21456(t2)
  404c1c:	afc30054 	sw	v1,84(s8)
  404c20:	8fc2004c 	lw	v0,76(s8)
  404c24:	1000ff25 	b	4048bc <read_alias_file+0x1b0>
  404c28:	ac5653c8 	sw	s6,21448(v0)
  404c2c:	14a00014 	bnez	a1,404c80 <read_alias_file+0x574>
  404c30:	00054040 	sll	t0,a1,0x1
  404c34:	24050320 	li	a1,800
  404c38:	24080064 	li	t0,100
  404c3c:	3c060049 	lui	a2,0x49
  404c40:	8f9980a0 	lw	t9,-32608(gp)
  404c44:	afc80038 	sw	t0,56(s8)
  404c48:	afc7003c 	sw	a3,60(s8)
  404c4c:	afc60040 	sw	a2,64(s8)
  404c50:	04114cb1 	bal	417f18 <__libc_realloc>
  404c54:	8cc45ca0 	lw	a0,23712(a2)
  404c58:	1040ff1e 	beqz	v0,4048d4 <read_alias_file+0x1c8>
  404c5c:	8fdc0010 	lw	gp,16(s8)
  404c60:	8fc60040 	lw	a2,64(s8)
  404c64:	8fc80038 	lw	t0,56(s8)
  404c68:	8fc7003c 	lw	a3,60(s8)
  404c6c:	acc25ca0 	sw	v0,23712(a2)
  404c70:	1000ff88 	b	404a94 <read_alias_file+0x388>
  404c74:	aee853c4 	sw	t0,21444(s7)
  404c78:	1000ff7e 	b	404a74 <read_alias_file+0x368>
  404c7c:	a0c00000 	sb	zero,0(a2)
  404c80:	1000ffee 	b	404c3c <read_alias_file+0x530>
  404c84:	00052900 	sll	a1,a1,0x4
  404c88:	1000ff23 	b	404918 <read_alias_file+0x20c>
  404c8c:	afc00054 	sw	zero,84(s8)
  404c90:	1040ffbb 	beqz	v0,404b80 <read_alias_file+0x474>
  404c94:	00002825 	move	a1,zero
  404c98:	8fc20050 	lw	v0,80(s8)
  404c9c:	01042023 	subu	a0,t0,a0
  404ca0:	000228c0 	sll	a1,v0,0x3
  404ca4:	03001025 	move	v0,t8
  404ca8:	03051821 	addu	v1,t8,a1
  404cac:	8c5f0000 	lw	ra,0(v0)
  404cb0:	24420008 	addiu	v0,v0,8
  404cb4:	03e4f821 	addu	ra,ra,a0
  404cb8:	8c59fffc 	lw	t9,-4(v0)
  404cbc:	ac5ffff8 	sw	ra,-8(v0)
  404cc0:	0324c821 	addu	t9,t9,a0
  404cc4:	1462fff9 	bne	v1,v0,404cac <read_alias_file+0x5a0>
  404cc8:	ac59fffc 	sw	t9,-4(v0)
  404ccc:	ade85ca4 	sw	t0,23716(t7)
  404cd0:	1000ffb3 	b	404ba0 <read_alias_file+0x494>
  404cd4:	add753cc 	sw	s7,21452(t6)
  404cd8:	8f9980c0 	lw	t9,-32576(gp)
  404cdc:	04110dd0 	bal	408420 <_IO_new_fclose>
  404ce0:	02402025 	move	a0,s2
  404ce4:	8fdc0010 	lw	gp,16(s8)
  404ce8:	1000ff0b 	b	404918 <read_alias_file+0x20c>
  404cec:	afc00054 	sw	zero,84(s8)
  404cf0:	8f998054 	lw	t9,-32684(gp)
  404cf4:	041169ee 	bal	41f4b0 <__stack_chk_fail>
  404cf8:	00000000 	nop

00404cfc <_nl_expand_alias>:
  404cfc:	27bdffb0 	addiu	sp,sp,-80
  404d00:	3c020049 	lui	v0,0x49
  404d04:	afb1002c 	sw	s1,44(sp)
  404d08:	00808825 	move	s1,a0
  404d0c:	00402025 	move	a0,v0
  404d10:	afbf004c 	sw	ra,76(sp)
  404d14:	afbe0048 	sw	s8,72(sp)
  404d18:	afb70044 	sw	s7,68(sp)
  404d1c:	afb60040 	sw	s6,64(sp)
  404d20:	afb5003c 	sw	s5,60(sp)
  404d24:	afb40038 	sw	s4,56(sp)
  404d28:	afb30034 	sw	s3,52(sp)
  404d2c:	afb20030 	sw	s2,48(sp)
  404d30:	afb00028 	sw	s0,40(sp)
  404d34:	afa20020 	sw	v0,32(sp)
  404d38:	c08353d4 	ll	v1,21460(a0)
  404d3c:	14600006 	bnez	v1,404d58 <_nl_expand_alias+0x5c>
  404d40:	24020000 	li	v0,0
  404d44:	24010001 	li	at,1
  404d48:	e08153d4 	sc	at,21460(a0)
  404d4c:	1020fffa 	beqz	at,404d38 <_nl_expand_alias+0x3c>
  404d50:	24020001 	li	v0,1
  404d54:	0000000f 	sync
  404d58:	10400089 	beqz	v0,404f80 <_nl_expand_alias+0x284>
  404d5c:	8fa20020 	lw	v0,32(sp)
  404d60:	3c120049 	lui	s2,0x49
  404d64:	8e4253c0 	lw	v0,21440(s2)
  404d68:	10400063 	beqz	v0,404ef8 <_nl_expand_alias+0x1fc>
  404d6c:	3c020046 	lui	v0,0x46
  404d70:	3c020049 	lui	v0,0x49
  404d74:	3c100042 	lui	s0,0x42
  404d78:	afa2001c 	sw	v0,28(sp)
  404d7c:	3c020049 	lui	v0,0x49
  404d80:	3c160049 	lui	s6,0x49
  404d84:	afa20024 	sw	v0,36(sp)
  404d88:	2610ac40 	addiu	s0,s0,-21440
  404d8c:	8fa2001c 	lw	v0,28(sp)
  404d90:	8c5453c8 	lw	s4,21448(v0)
  404d94:	16800027 	bnez	s4,404e34 <_nl_expand_alias+0x138>
  404d98:	26d637a4 	addiu	s6,s6,14244
  404d9c:	2417003a 	li	s7,58
  404da0:	8e4553c0 	lw	a1,21440(s2)
  404da4:	00003025 	move	a2,zero
  404da8:	80a20000 	lb	v0,0(a1)
  404dac:	10400037 	beqz	v0,404e8c <_nl_expand_alias+0x190>
  404db0:	24a30001 	addiu	v1,a1,1
  404db4:	14570009 	bne	v0,s7,404ddc <_nl_expand_alias+0xe0>
  404db8:	00a02025 	move	a0,a1
  404dbc:	00602025 	move	a0,v1
  404dc0:	24630001 	addiu	v1,v1,1
  404dc4:	8062ffff 	lb	v0,-1(v1)
  404dc8:	1057fffc 	beq	v0,s7,404dbc <_nl_expand_alias+0xc0>
  404dcc:	00000000 	nop
  404dd0:	24060001 	li	a2,1
  404dd4:	1040fff4 	beqz	v0,404da8 <_nl_expand_alias+0xac>
  404dd8:	00802825 	move	a1,a0
  404ddc:	10000005 	b	404df4 <_nl_expand_alias+0xf8>
  404de0:	00802825 	move	a1,a0
  404de4:	80a20001 	lb	v0,1(a1)
  404de8:	24060001 	li	a2,1
  404dec:	10400003 	beqz	v0,404dfc <_nl_expand_alias+0x100>
  404df0:	24a50001 	addiu	a1,a1,1
  404df4:	1457fffb 	bne	v0,s7,404de4 <_nl_expand_alias+0xe8>
  404df8:	00000000 	nop
  404dfc:	0085102b 	sltu	v0,a0,a1
  404e00:	1040ffe9 	beqz	v0,404da8 <_nl_expand_alias+0xac>
  404e04:	00000000 	nop
  404e08:	10c00002 	beqz	a2,404e14 <_nl_expand_alias+0x118>
  404e0c:	00000000 	nop
  404e10:	ae4553c0 	sw	a1,21440(s2)
  404e14:	0c1011c3 	jal	40470c <read_alias_file>
  404e18:	00a42823 	subu	a1,a1,a0
  404e1c:	1040ffe1 	beqz	v0,404da4 <_nl_expand_alias+0xa8>
  404e20:	8e4553c0 	lw	a1,21440(s2)
  404e24:	8fa2001c 	lw	v0,28(sp)
  404e28:	8c5453c8 	lw	s4,21448(v0)
  404e2c:	1280ffdd 	beqz	s4,404da4 <_nl_expand_alias+0xa8>
  404e30:	2417003a 	li	s7,58
  404e34:	8fa20024 	lw	v0,36(sp)
  404e38:	00009825 	move	s3,zero
  404e3c:	10000006 	b	404e58 <_nl_expand_alias+0x15c>
  404e40:	8c5e5ca0 	lw	s8,23712(v0)
  404e44:	1040002f 	beqz	v0,404f04 <_nl_expand_alias+0x208>
  404e48:	26f30001 	addiu	s3,s7,1
  404e4c:	0274102b 	sltu	v0,s3,s4
  404e50:	1040ffd3 	beqz	v0,404da0 <_nl_expand_alias+0xa4>
  404e54:	2417003a 	li	s7,58
  404e58:	0274b821 	addu	s7,s3,s4
  404e5c:	02c03025 	move	a2,s6
  404e60:	0017b842 	srl	s7,s7,0x1
  404e64:	02202025 	move	a0,s1
  404e68:	001718c0 	sll	v1,s7,0x3
  404e6c:	0200c825 	move	t9,s0
  404e70:	03c3a821 	addu	s5,s8,v1
  404e74:	04115772 	bal	41ac40 <__strcasecmp_l>
  404e78:	8ea50000 	lw	a1,0(s5)
  404e7c:	0441fff1 	bgez	v0,404e44 <_nl_expand_alias+0x148>
  404e80:	00000000 	nop
  404e84:	1000fff1 	b	404e4c <_nl_expand_alias+0x150>
  404e88:	02e0a025 	move	s4,s7
  404e8c:	10c00003 	beqz	a2,404e9c <_nl_expand_alias+0x1a0>
  404e90:	8fa30020 	lw	v1,32(sp)
  404e94:	ae4553c0 	sw	a1,21440(s2)
  404e98:	8fa30020 	lw	v1,32(sp)
  404e9c:	00008025 	move	s0,zero
  404ea0:	0000000f 	sync
  404ea4:	c06253d4 	ll	v0,21460(v1)
  404ea8:	24010000 	li	at,0
  404eac:	e06153d4 	sc	at,21460(v1)
  404eb0:	1020fffc 	beqz	at,404ea4 <_nl_expand_alias+0x1a8>
  404eb4:	00000000 	nop
  404eb8:	28420002 	slti	v0,v0,2
  404ebc:	1040001d 	beqz	v0,404f34 <_nl_expand_alias+0x238>
  404ec0:	8fa20020 	lw	v0,32(sp)
  404ec4:	8fbf004c 	lw	ra,76(sp)
  404ec8:	02001025 	move	v0,s0
  404ecc:	8fbe0048 	lw	s8,72(sp)
  404ed0:	8fb70044 	lw	s7,68(sp)
  404ed4:	8fb60040 	lw	s6,64(sp)
  404ed8:	8fb5003c 	lw	s5,60(sp)
  404edc:	8fb40038 	lw	s4,56(sp)
  404ee0:	8fb30034 	lw	s3,52(sp)
  404ee4:	8fb20030 	lw	s2,48(sp)
  404ee8:	8fb1002c 	lw	s1,44(sp)
  404eec:	8fb00028 	lw	s0,40(sp)
  404ef0:	03e00008 	jr	ra
  404ef4:	27bd0050 	addiu	sp,sp,80
  404ef8:	24427690 	addiu	v0,v0,30352
  404efc:	1000ff9c 	b	404d70 <_nl_expand_alias+0x74>
  404f00:	ae4253c0 	sw	v0,21440(s2)
  404f04:	8eb00004 	lw	s0,4(s5)
  404f08:	8fa30020 	lw	v1,32(sp)
  404f0c:	0000000f 	sync
  404f10:	c06253d4 	ll	v0,21460(v1)
  404f14:	24010000 	li	at,0
  404f18:	e06153d4 	sc	at,21460(v1)
  404f1c:	1020fffc 	beqz	at,404f10 <_nl_expand_alias+0x214>
  404f20:	00000000 	nop
  404f24:	28420002 	slti	v0,v0,2
  404f28:	1440ffe7 	bnez	v0,404ec8 <_nl_expand_alias+0x1cc>
  404f2c:	8fbf004c 	lw	ra,76(sp)
  404f30:	8fa20020 	lw	v0,32(sp)
  404f34:	24050081 	li	a1,129
  404f38:	24060001 	li	a2,1
  404f3c:	00003825 	move	a3,zero
  404f40:	244453d4 	addiu	a0,v0,21460
  404f44:	2402108e 	li	v0,4238
  404f48:	0000000c 	syscall
  404f4c:	8fbf004c 	lw	ra,76(sp)
  404f50:	02001025 	move	v0,s0
  404f54:	8fbe0048 	lw	s8,72(sp)
  404f58:	8fb70044 	lw	s7,68(sp)
  404f5c:	8fb60040 	lw	s6,64(sp)
  404f60:	8fb5003c 	lw	s5,60(sp)
  404f64:	8fb40038 	lw	s4,56(sp)
  404f68:	8fb30034 	lw	s3,52(sp)
  404f6c:	8fb20030 	lw	s2,48(sp)
  404f70:	8fb1002c 	lw	s1,44(sp)
  404f74:	8fb00028 	lw	s0,40(sp)
  404f78:	03e00008 	jr	ra
  404f7c:	27bd0050 	addiu	sp,sp,80
  404f80:	3c190041 	lui	t9,0x41
  404f84:	27392170 	addiu	t9,t9,8560
  404f88:	04113479 	bal	412170 <__lll_lock_wait_private>
  404f8c:	244453d4 	addiu	a0,v0,21460
  404f90:	1000ff74 	b	404d64 <_nl_expand_alias+0x68>
  404f94:	3c120049 	lui	s2,0x49
	...

00404fa0 <_nl_make_l10nflist>:
  404fa0:	27bdff90 	addiu	sp,sp,-112
  404fa4:	3c1c004a 	lui	gp,0x4a
  404fa8:	00801025 	move	v0,a0
  404fac:	afb00048 	sw	s0,72(sp)
  404fb0:	3c100042 	lui	s0,0x42
  404fb4:	afb40058 	sw	s4,88(sp)
  404fb8:	279ccae0 	addiu	gp,gp,-13600
  404fbc:	afbe0068 	sw	s8,104(sp)
  404fc0:	26109b70 	addiu	s0,s0,-25744
  404fc4:	afb70064 	sw	s7,100(sp)
  404fc8:	afb5005c 	sw	s5,92(sp)
  404fcc:	0200c825 	move	t9,s0
  404fd0:	afb30054 	sw	s3,84(sp)
  404fd4:	00e09825 	move	s3,a3
  404fd8:	afb20050 	sw	s2,80(sp)
  404fdc:	32750004 	andi	s5,s3,0x4
  404fe0:	afbf006c 	sw	ra,108(sp)
  404fe4:	00c09025 	move	s2,a2
  404fe8:	afb60060 	sw	s6,96(sp)
  404fec:	265e0002 	addiu	s8,s2,2
  404ff0:	afb1004c 	sw	s1,76(sp)
  404ff4:	afbc0030 	sw	gp,48(sp)
  404ff8:	afa20070 	sw	v0,112(sp)
  404ffc:	afa50074 	sw	a1,116(sp)
  405000:	8fb40080 	lw	s4,128(sp)
  405004:	041152da 	bal	419b70 <strlen>
  405008:	02802025 	move	a0,s4
  40500c:	12a00086 	beqz	s5,405228 <_nl_make_l10nflist+0x288>
  405010:	0040b825 	move	s7,v0
  405014:	0200c825 	move	t9,s0
  405018:	041152d5 	bal	419b70 <strlen>
  40501c:	8fa40084 	lw	a0,132(sp)
  405020:	24510001 	addiu	s1,v0,1
  405024:	32620002 	andi	v0,s3,0x2
  405028:	02feb821 	addu	s7,s7,s8
  40502c:	1040007c 	beqz	v0,405220 <_nl_make_l10nflist+0x280>
  405030:	afa20038 	sw	v0,56(sp)
  405034:	0200c825 	move	t9,s0
  405038:	041152cd 	bal	419b70 <strlen>
  40503c:	8fa40088 	lw	a0,136(sp)
  405040:	245e0001 	addiu	s8,v0,1
  405044:	32620001 	andi	v0,s3,0x1
  405048:	02378821 	addu	s1,s1,s7
  40504c:	10400072 	beqz	v0,405218 <_nl_make_l10nflist+0x278>
  405050:	afa2003c 	sw	v0,60(sp)
  405054:	0200c825 	move	t9,s0
  405058:	041152c5 	bal	419b70 <strlen>
  40505c:	8fa4008c 	lw	a0,140(sp)
  405060:	24570001 	addiu	s7,v0,1
  405064:	32620008 	andi	v0,s3,0x8
  405068:	03d18821 	addu	s1,s8,s1
  40506c:	10400068 	beqz	v0,405210 <_nl_make_l10nflist+0x270>
  405070:	afa20040 	sw	v0,64(sp)
  405074:	0200c825 	move	t9,s0
  405078:	041152bd 	bal	419b70 <strlen>
  40507c:	8fa40090 	lw	a0,144(sp)
  405080:	245e0001 	addiu	s8,v0,1
  405084:	8fa40094 	lw	a0,148(sp)
  405088:	0200c825 	move	t9,s0
  40508c:	041152b8 	bal	419b70 <strlen>
  405090:	02f18821 	addu	s1,s7,s1
  405094:	023e8821 	addu	s1,s1,s8
  405098:	8fbc0030 	lw	gp,48(sp)
  40509c:	02222021 	addu	a0,s1,v0
  4050a0:	8f9980a4 	lw	t9,-32604(gp)
  4050a4:	04114920 	bal	417528 <__libc_malloc>
  4050a8:	afa20044 	sw	v0,68(sp)
  4050ac:	8fbc0030 	lw	gp,48(sp)
  4050b0:	10400134 	beqz	v0,405584 <_nl_make_l10nflist+0x5e4>
  4050b4:	00408825 	move	s1,v0
  4050b8:	8f998088 	lw	t9,-32632(gp)
  4050bc:	02403025 	move	a2,s2
  4050c0:	8fa50074 	lw	a1,116(sp)
  4050c4:	041156f6 	bal	41aca0 <memcpy>
  4050c8:	00402025 	move	a0,v0
  4050cc:	1240000f 	beqz	s2,40510c <_nl_make_l10nflist+0x16c>
  4050d0:	8fbc0030 	lw	gp,48(sp)
  4050d4:	241e003a 	li	s8,58
  4050d8:	0240b825 	move	s7,s2
  4050dc:	0220b025 	move	s6,s1
  4050e0:	0200c825 	move	t9,s0
  4050e4:	041152a2 	bal	419b70 <strlen>
  4050e8:	02c02025 	move	a0,s6
  4050ec:	00022827 	nor	a1,zero,v0
  4050f0:	8fbc0030 	lw	gp,48(sp)
  4050f4:	02c21021 	addu	v0,s6,v0
  4050f8:	02e5b821 	addu	s7,s7,a1
  4050fc:	12e00003 	beqz	s7,40510c <_nl_make_l10nflist+0x16c>
  405100:	24560001 	addiu	s6,v0,1
  405104:	1000fff6 	b	4050e0 <_nl_make_l10nflist+0x140>
  405108:	a05e0000 	sb	s8,0(v0)
  40510c:	02322021 	addu	a0,s1,s2
  405110:	8f9980ac 	lw	t9,-32596(gp)
  405114:	2402002f 	li	v0,47
  405118:	02802825 	move	a1,s4
  40511c:	041156ac 	bal	41abd0 <stpcpy>
  405120:	a082ffff 	sb	v0,-1(a0)
  405124:	16a000c5 	bnez	s5,40543c <_nl_make_l10nflist+0x49c>
  405128:	8fbc0030 	lw	gp,48(sp)
  40512c:	8fa30038 	lw	v1,56(sp)
  405130:	146000ba 	bnez	v1,40541c <_nl_make_l10nflist+0x47c>
  405134:	24440001 	addiu	a0,v0,1
  405138:	8fa3003c 	lw	v1,60(sp)
  40513c:	146000b0 	bnez	v1,405400 <_nl_make_l10nflist+0x460>
  405140:	8f9980ac 	lw	t9,-32596(gp)
  405144:	8fa30040 	lw	v1,64(sp)
  405148:	146000a6 	bnez	v1,4053e4 <_nl_make_l10nflist+0x444>
  40514c:	8f9980ac 	lw	t9,-32596(gp)
  405150:	8fa30044 	lw	v1,68(sp)
  405154:	0000b825 	move	s7,zero
  405158:	8f998088 	lw	t9,-32632(gp)
  40515c:	8fa50094 	lw	a1,148(sp)
  405160:	24660001 	addiu	a2,v1,1
  405164:	2403002f 	li	v1,47
  405168:	041156cd 	bal	41aca0 <memcpy>
  40516c:	a0430000 	sb	v1,0(v0)
  405170:	8fa20070 	lw	v0,112(sp)
  405174:	8fbc0030 	lw	gp,48(sp)
  405178:	8c560000 	lw	s6,0(v0)
  40517c:	12c00011 	beqz	s6,4051c4 <_nl_make_l10nflist+0x224>
  405180:	afb60038 	sw	s6,56(sp)
  405184:	3c150042 	lui	s5,0x42
  405188:	26b59670 	addiu	s5,s5,-27024
  40518c:	8ec40000 	lw	a0,0(s6)
  405190:	10800009 	beqz	a0,4051b8 <_nl_make_l10nflist+0x218>
  405194:	02202825 	move	a1,s1
  405198:	02a0c825 	move	t9,s5
  40519c:	04115134 	bal	419670 <strcmp>
  4051a0:	00000000 	nop
  4051a4:	1040000a 	beqz	v0,4051d0 <_nl_make_l10nflist+0x230>
  4051a8:	8fbc0030 	lw	gp,48(sp)
  4051ac:	04400006 	bltz	v0,4051c8 <_nl_make_l10nflist+0x228>
  4051b0:	8fa20098 	lw	v0,152(sp)
  4051b4:	02c0b825 	move	s7,s6
  4051b8:	8ed6000c 	lw	s6,12(s6)
  4051bc:	16c0fff3 	bnez	s6,40518c <_nl_make_l10nflist+0x1ec>
  4051c0:	00000000 	nop
  4051c4:	8fa20098 	lw	v0,152(sp)
  4051c8:	14400019 	bnez	v0,405230 <_nl_make_l10nflist+0x290>
  4051cc:	0000b025 	move	s6,zero
  4051d0:	8f99804c 	lw	t9,-32692(gp)
  4051d4:	04114aa7 	bal	417c74 <__free>
  4051d8:	02202025 	move	a0,s1
  4051dc:	8fbf006c 	lw	ra,108(sp)
  4051e0:	02c01025 	move	v0,s6
  4051e4:	8fbe0068 	lw	s8,104(sp)
  4051e8:	8fb70064 	lw	s7,100(sp)
  4051ec:	8fb60060 	lw	s6,96(sp)
  4051f0:	8fb5005c 	lw	s5,92(sp)
  4051f4:	8fb40058 	lw	s4,88(sp)
  4051f8:	8fb30054 	lw	s3,84(sp)
  4051fc:	8fb20050 	lw	s2,80(sp)
  405200:	8fb1004c 	lw	s1,76(sp)
  405204:	8fb00048 	lw	s0,72(sp)
  405208:	03e00008 	jr	ra
  40520c:	27bd0070 	addiu	sp,sp,112
  405210:	1000ff9c 	b	405084 <_nl_make_l10nflist+0xe4>
  405214:	0000f025 	move	s8,zero
  405218:	1000ff92 	b	405064 <_nl_make_l10nflist+0xc4>
  40521c:	0000b825 	move	s7,zero
  405220:	1000ff88 	b	405044 <_nl_make_l10nflist+0xa4>
  405224:	0000f025 	move	s8,zero
  405228:	1000ff7e 	b	405024 <_nl_make_l10nflist+0x84>
  40522c:	00008825 	move	s1,zero
  405230:	2404d555 	li	a0,-10923
  405234:	00131043 	sra	v0,s3,0x1
  405238:	32635555 	andi	v1,s3,0x5555
  40523c:	00441024 	and	v0,v0,a0
  405240:	00431021 	addu	v0,v0,v1
  405244:	2404f333 	li	a0,-3277
  405248:	00021883 	sra	v1,v0,0x2
  40524c:	30423333 	andi	v0,v0,0x3333
  405250:	00641824 	and	v1,v1,a0
  405254:	00621821 	addu	v1,v1,v0
  405258:	00031103 	sra	v0,v1,0x4
  40525c:	00431021 	addu	v0,v0,v1
  405260:	7c551a00 	ext	s5,v0,0x8,0x4
  405264:	30420f0f 	andi	v0,v0,0xf0f
  405268:	02a21021 	addu	v0,s5,v0
  40526c:	304200ff 	andi	v0,v0,0xff
  405270:	124000b5 	beqz	s2,405548 <_nl_make_l10nflist+0x5a8>
  405274:	afa2003c 	sw	v0,60(sp)
  405278:	8fb50074 	lw	s5,116(sp)
  40527c:	0000b025 	move	s6,zero
  405280:	0240f025 	move	s8,s2
  405284:	0200c825 	move	t9,s0
  405288:	04115239 	bal	419b70 <strlen>
  40528c:	02a02025 	move	a0,s5
  405290:	26d60001 	addiu	s6,s6,1
  405294:	00023027 	nor	a2,zero,v0
  405298:	8fbc0030 	lw	gp,48(sp)
  40529c:	24420001 	addiu	v0,v0,1
  4052a0:	03c6f021 	addu	s8,s8,a2
  4052a4:	17c0fff7 	bnez	s8,405284 <_nl_make_l10nflist+0x2e4>
  4052a8:	02a2a821 	addu	s5,s5,v0
  4052ac:	8fa2003c 	lw	v0,60(sp)
  4052b0:	8f9980a4 	lw	t9,-32604(gp)
  4052b4:	00561804 	sllv	v1,s6,v0
  4052b8:	24640005 	addiu	a0,v1,5
  4052bc:	0411489a 	bal	417528 <__libc_malloc>
  4052c0:	00042080 	sll	a0,a0,0x2
  4052c4:	8fbc0030 	lw	gp,48(sp)
  4052c8:	104000a8 	beqz	v0,40556c <_nl_make_l10nflist+0x5cc>
  4052cc:	0040b025 	move	s6,v0
  4052d0:	ac510000 	sw	s1,0(v0)
  4052d4:	0240a825 	move	s5,s2
  4052d8:	8fb10074 	lw	s1,116(sp)
  4052dc:	0200c825 	move	t9,s0
  4052e0:	04115223 	bal	419b70 <strlen>
  4052e4:	02202025 	move	a0,s1
  4052e8:	27de0001 	addiu	s8,s8,1
  4052ec:	00022027 	nor	a0,zero,v0
  4052f0:	8fbc0030 	lw	gp,48(sp)
  4052f4:	24420001 	addiu	v0,v0,1
  4052f8:	02a4a821 	addu	s5,s5,a0
  4052fc:	16a0fff7 	bnez	s5,4052dc <_nl_make_l10nflist+0x33c>
  405300:	02228821 	addu	s1,s1,v0
  405304:	24020001 	li	v0,1
  405308:	13c20054 	beq	s8,v0,40545c <_nl_make_l10nflist+0x4bc>
  40530c:	00000000 	nop
  405310:	aec20004 	sw	v0,4(s6)
  405314:	12e00087 	beqz	s7,405534 <_nl_make_l10nflist+0x594>
  405318:	aec00008 	sw	zero,8(s6)
  40531c:	8ee2000c 	lw	v0,12(s7)
  405320:	aec2000c 	sw	v0,12(s6)
  405324:	aef6000c 	sw	s6,12(s7)
  405328:	12400010 	beqz	s2,40536c <_nl_make_l10nflist+0x3cc>
  40532c:	8fb10074 	lw	s1,116(sp)
  405330:	0000b825 	move	s7,zero
  405334:	0240a825 	move	s5,s2
  405338:	0200c825 	move	t9,s0
  40533c:	0411520c 	bal	419b70 <strlen>
  405340:	02202025 	move	a0,s1
  405344:	26f70001 	addiu	s7,s7,1
  405348:	00022027 	nor	a0,zero,v0
  40534c:	8fbc0030 	lw	gp,48(sp)
  405350:	24420001 	addiu	v0,v0,1
  405354:	02a4a821 	addu	s5,s5,a0
  405358:	16a0fff7 	bnez	s5,405338 <_nl_make_l10nflist+0x398>
  40535c:	02228821 	addu	s1,s1,v0
  405360:	24020001 	li	v0,1
  405364:	12e20002 	beq	s7,v0,405370 <_nl_make_l10nflist+0x3d0>
  405368:	2677ffff 	addiu	s7,s3,-1
  40536c:	0260b825 	move	s7,s3
  405370:	06e0000b 	bltz	s7,4053a0 <_nl_make_l10nflist+0x400>
  405374:	0000f025 	move	s8,zero
  405378:	8fa20074 	lw	v0,116(sp)
  40537c:	2409ffff 	li	t1,-1
  405380:	00138827 	nor	s1,zero,s3
  405384:	00525021 	addu	t2,v0,s2
  405388:	02f11024 	and	v0,s7,s1
  40538c:	10400037 	beqz	v0,40546c <_nl_make_l10nflist+0x4cc>
  405390:	00009825 	move	s3,zero
  405394:	26f7ffff 	addiu	s7,s7,-1
  405398:	16e9fffc 	bne	s7,t1,40538c <_nl_make_l10nflist+0x3ec>
  40539c:	02f11024 	and	v0,s7,s1
  4053a0:	27c20004 	addiu	v0,s8,4
  4053a4:	8fbf006c 	lw	ra,108(sp)
  4053a8:	8fbe0068 	lw	s8,104(sp)
  4053ac:	00021080 	sll	v0,v0,0x2
  4053b0:	8fb70064 	lw	s7,100(sp)
  4053b4:	8fb5005c 	lw	s5,92(sp)
  4053b8:	02c21021 	addu	v0,s6,v0
  4053bc:	8fb40058 	lw	s4,88(sp)
  4053c0:	8fb30054 	lw	s3,84(sp)
  4053c4:	8fb20050 	lw	s2,80(sp)
  4053c8:	8fb1004c 	lw	s1,76(sp)
  4053cc:	8fb00048 	lw	s0,72(sp)
  4053d0:	ac400000 	sw	zero,0(v0)
  4053d4:	02c01025 	move	v0,s6
  4053d8:	8fb60060 	lw	s6,96(sp)
  4053dc:	03e00008 	jr	ra
  4053e0:	27bd0070 	addiu	sp,sp,112
  4053e4:	24030040 	li	v1,64
  4053e8:	8fa50090 	lw	a1,144(sp)
  4053ec:	041155f8 	bal	41abd0 <stpcpy>
  4053f0:	a0430000 	sb	v1,0(v0)
  4053f4:	8fbc0030 	lw	gp,48(sp)
  4053f8:	1000ff55 	b	405150 <_nl_make_l10nflist+0x1b0>
  4053fc:	24440001 	addiu	a0,v0,1
  405400:	2403002e 	li	v1,46
  405404:	8fa5008c 	lw	a1,140(sp)
  405408:	041155f1 	bal	41abd0 <stpcpy>
  40540c:	a0430000 	sb	v1,0(v0)
  405410:	8fbc0030 	lw	gp,48(sp)
  405414:	1000ff4b 	b	405144 <_nl_make_l10nflist+0x1a4>
  405418:	24440001 	addiu	a0,v0,1
  40541c:	8f9980ac 	lw	t9,-32596(gp)
  405420:	2403002e 	li	v1,46
  405424:	8fa50088 	lw	a1,136(sp)
  405428:	041155e9 	bal	41abd0 <stpcpy>
  40542c:	a0430000 	sb	v1,0(v0)
  405430:	8fbc0030 	lw	gp,48(sp)
  405434:	1000ff40 	b	405138 <_nl_make_l10nflist+0x198>
  405438:	24440001 	addiu	a0,v0,1
  40543c:	8f9980ac 	lw	t9,-32596(gp)
  405440:	2403005f 	li	v1,95
  405444:	8fa50084 	lw	a1,132(sp)
  405448:	24440001 	addiu	a0,v0,1
  40544c:	041155e0 	bal	41abd0 <stpcpy>
  405450:	a0430000 	sb	v1,0(v0)
  405454:	1000ff35 	b	40512c <_nl_make_l10nflist+0x18c>
  405458:	8fbc0030 	lw	gp,48(sp)
  40545c:	32620003 	andi	v0,s3,0x3
  405460:	38420003 	xori	v0,v0,0x3
  405464:	1000ffaa 	b	405310 <_nl_make_l10nflist+0x370>
  405468:	2c420001 	sltiu	v0,v0,1
  40546c:	001ea880 	sll	s5,s8,0x2
  405470:	02d5a821 	addu	s5,s6,s5
  405474:	1260002b 	beqz	s3,405524 <_nl_make_l10nflist+0x584>
  405478:	026a102b 	sltu	v0,s3,t2
  40547c:	8f9980c4 	lw	t9,-32572(gp)
  405480:	1040ffc4 	beqz	v0,405394 <_nl_make_l10nflist+0x3f4>
  405484:	02602025 	move	a0,s3
  405488:	041151b9 	bal	419b70 <strlen>
  40548c:	afaa0038 	sw	t2,56(sp)
  405490:	2409ffff 	li	t1,-1
  405494:	24420001 	addiu	v0,v0,1
  405498:	8faa0038 	lw	t2,56(sp)
  40549c:	02629821 	addu	s3,s3,v0
  4054a0:	026a102b 	sltu	v0,s3,t2
  4054a4:	1040ffbb 	beqz	v0,405394 <_nl_make_l10nflist+0x3f4>
  4054a8:	8fbc0030 	lw	gp,48(sp)
  4054ac:	afaa0038 	sw	t2,56(sp)
  4054b0:	0200c825 	move	t9,s0
  4054b4:	041151ae 	bal	419b70 <strlen>
  4054b8:	02602025 	move	a0,s3
  4054bc:	24030001 	li	v1,1
  4054c0:	24460001 	addiu	a2,v0,1
  4054c4:	8fa20094 	lw	v0,148(sp)
  4054c8:	8fa40070 	lw	a0,112(sp)
  4054cc:	02e03825 	move	a3,s7
  4054d0:	afa30028 	sw	v1,40(sp)
  4054d4:	02602825 	move	a1,s3
  4054d8:	afa20024 	sw	v0,36(sp)
  4054dc:	26b50004 	addiu	s5,s5,4
  4054e0:	8fa20090 	lw	v0,144(sp)
  4054e4:	27de0001 	addiu	s8,s8,1
  4054e8:	afb40010 	sw	s4,16(sp)
  4054ec:	afa20020 	sw	v0,32(sp)
  4054f0:	8fa2008c 	lw	v0,140(sp)
  4054f4:	afa2001c 	sw	v0,28(sp)
  4054f8:	8fa20088 	lw	v0,136(sp)
  4054fc:	afa20018 	sw	v0,24(sp)
  405500:	8fa20084 	lw	v0,132(sp)
  405504:	0c1013e8 	jal	404fa0 <_nl_make_l10nflist>
  405508:	afa20014 	sw	v0,20(sp)
  40550c:	2409ffff 	li	t1,-1
  405510:	8faa0038 	lw	t2,56(sp)
  405514:	8fbc0030 	lw	gp,48(sp)
  405518:	aea2000c 	sw	v0,12(s5)
  40551c:	1660ffd7 	bnez	s3,40547c <_nl_make_l10nflist+0x4dc>
  405520:	026a102b 	sltu	v0,s3,t2
  405524:	1240ff9b 	beqz	s2,405394 <_nl_make_l10nflist+0x3f4>
  405528:	8fb30074 	lw	s3,116(sp)
  40552c:	1000ffe0 	b	4054b0 <_nl_make_l10nflist+0x510>
  405530:	afaa0038 	sw	t2,56(sp)
  405534:	8fa20038 	lw	v0,56(sp)
  405538:	aec2000c 	sw	v0,12(s6)
  40553c:	8fa20070 	lw	v0,112(sp)
  405540:	1000ff79 	b	405328 <_nl_make_l10nflist+0x388>
  405544:	ac560000 	sw	s6,0(v0)
  405548:	8f9980a4 	lw	t9,-32604(gp)
  40554c:	041147f6 	bal	417528 <__libc_malloc>
  405550:	24040014 	li	a0,20
  405554:	8fbc0030 	lw	gp,48(sp)
  405558:	10400004 	beqz	v0,40556c <_nl_make_l10nflist+0x5cc>
  40555c:	0040b025 	move	s6,v0
  405560:	24020001 	li	v0,1
  405564:	1000ff6a 	b	405310 <_nl_make_l10nflist+0x370>
  405568:	aed10000 	sw	s1,0(s6)
  40556c:	8f99804c 	lw	t9,-32692(gp)
  405570:	02202025 	move	a0,s1
  405574:	041149bf 	bal	417c74 <__free>
  405578:	0000b025 	move	s6,zero
  40557c:	1000ff18 	b	4051e0 <_nl_make_l10nflist+0x240>
  405580:	8fbf006c 	lw	ra,108(sp)
  405584:	1000ff15 	b	4051dc <_nl_make_l10nflist+0x23c>
  405588:	0000b025 	move	s6,zero

0040558c <_nl_normalize_codeset>:
  40558c:	3c1c004a 	lui	gp,0x4a
  405590:	27bdffd0 	addiu	sp,sp,-48
  405594:	279ccae0 	addiu	gp,gp,-13600
  405598:	afbf002c 	sw	ra,44(sp)
  40559c:	afb30028 	sw	s3,40(sp)
  4055a0:	afb20024 	sw	s2,36(sp)
  4055a4:	afb10020 	sw	s1,32(sp)
  4055a8:	afb0001c 	sw	s0,28(sp)
  4055ac:	10a0004b 	beqz	a1,4056dc <_nl_normalize_codeset+0x150>
  4055b0:	afbc0010 	sw	gp,16(sp)
  4055b4:	3c130049 	lui	s3,0x49
  4055b8:	00a43821 	addu	a3,a1,a0
  4055bc:	267337a4 	addiu	s3,s3,14244
  4055c0:	00809025 	move	s2,a0
  4055c4:	00a08825 	move	s1,a1
  4055c8:	8e700034 	lw	s0,52(s3)
  4055cc:	24050001 	li	a1,1
  4055d0:	00002025 	move	a0,zero
  4055d4:	02401825 	move	v1,s2
  4055d8:	90620000 	lbu	v0,0(v1)
  4055dc:	24630001 	addiu	v1,v1,1
  4055e0:	00023040 	sll	a2,v0,0x1
  4055e4:	2442ffd0 	addiu	v0,v0,-48
  4055e8:	02063021 	addu	a2,s0,a2
  4055ec:	94c60000 	lhu	a2,0(a2)
  4055f0:	30c60800 	andi	a2,a2,0x800
  4055f4:	10c00003 	beqz	a2,405604 <_nl_normalize_codeset+0x78>
  4055f8:	2c42000a 	sltiu	v0,v0,10
  4055fc:	0002280a 	movz	a1,zero,v0
  405600:	24840001 	addiu	a0,a0,1
  405604:	14e3fff4 	bne	a3,v1,4055d8 <_nl_normalize_codeset+0x4c>
  405608:	00000000 	nop
  40560c:	14a0002a 	bnez	a1,4056b8 <_nl_normalize_codeset+0x12c>
  405610:	8f9980a4 	lw	t9,-32604(gp)
  405614:	041147c4 	bal	417528 <__libc_malloc>
  405618:	24840001 	addiu	a0,a0,1
  40561c:	10400034 	beqz	v0,4056f0 <_nl_normalize_codeset+0x164>
  405620:	00404825 	move	t1,v0
  405624:	8e650038 	lw	a1,56(s3)
  405628:	10000008 	b	40564c <_nl_normalize_codeset+0xc0>
  40562c:	00003025 	move	a2,zero
  405630:	8d030000 	lw	v1,0(t0)
  405634:	25290001 	addiu	t1,t1,1
  405638:	a123ffff 	sb	v1,-1(t1)
  40563c:	24c60001 	addiu	a2,a2,1
  405640:	00d1182b 	sltu	v1,a2,s1
  405644:	10600014 	beqz	v1,405698 <_nl_normalize_codeset+0x10c>
  405648:	00000000 	nop
  40564c:	02461821 	addu	v1,s2,a2
  405650:	80640000 	lb	a0,0(v1)
  405654:	308300ff 	andi	v1,a0,0xff
  405658:	00033840 	sll	a3,v1,0x1
  40565c:	00034080 	sll	t0,v1,0x2
  405660:	02073821 	addu	a3,s0,a3
  405664:	2463ffd0 	addiu	v1,v1,-48
  405668:	00a84021 	addu	t0,a1,t0
  40566c:	94e70000 	lhu	a3,0(a3)
  405670:	30e70004 	andi	a3,a3,0x4
  405674:	14e0ffee 	bnez	a3,405630 <_nl_normalize_codeset+0xa4>
  405678:	2c63000a 	sltiu	v1,v1,10
  40567c:	1060ffef 	beqz	v1,40563c <_nl_normalize_codeset+0xb0>
  405680:	00000000 	nop
  405684:	24c60001 	addiu	a2,a2,1
  405688:	a1240000 	sb	a0,0(t1)
  40568c:	00d1182b 	sltu	v1,a2,s1
  405690:	1460ffee 	bnez	v1,40564c <_nl_normalize_codeset+0xc0>
  405694:	25290001 	addiu	t1,t1,1
  405698:	a1200000 	sb	zero,0(t1)
  40569c:	8fbf002c 	lw	ra,44(sp)
  4056a0:	8fb30028 	lw	s3,40(sp)
  4056a4:	8fb20024 	lw	s2,36(sp)
  4056a8:	8fb10020 	lw	s1,32(sp)
  4056ac:	8fb0001c 	lw	s0,28(sp)
  4056b0:	03e00008 	jr	ra
  4056b4:	27bd0030 	addiu	sp,sp,48
  4056b8:	0411479b 	bal	417528 <__libc_malloc>
  4056bc:	24840004 	addiu	a0,a0,4
  4056c0:	1040000b 	beqz	v0,4056f0 <_nl_normalize_codeset+0x164>
  4056c4:	3c036973 	lui	v1,0x6973
  4056c8:	8e700034 	lw	s0,52(s3)
  4056cc:	24490003 	addiu	t1,v0,3
  4056d0:	24636f00 	addiu	v1,v1,28416
  4056d4:	1000ffd3 	b	405624 <_nl_normalize_codeset+0x98>
  4056d8:	ac430000 	sw	v1,0(v0)
  4056dc:	8f9980a4 	lw	t9,-32604(gp)
  4056e0:	04114791 	bal	417528 <__libc_malloc>
  4056e4:	24040004 	li	a0,4
  4056e8:	14400009 	bnez	v0,405710 <_nl_normalize_codeset+0x184>
  4056ec:	3c036973 	lui	v1,0x6973
  4056f0:	8fbf002c 	lw	ra,44(sp)
  4056f4:	00001025 	move	v0,zero
  4056f8:	8fb30028 	lw	s3,40(sp)
  4056fc:	8fb20024 	lw	s2,36(sp)
  405700:	8fb10020 	lw	s1,32(sp)
  405704:	8fb0001c 	lw	s0,28(sp)
  405708:	03e00008 	jr	ra
  40570c:	27bd0030 	addiu	sp,sp,48
  405710:	24490003 	addiu	t1,v0,3
  405714:	24636f00 	addiu	v1,v1,28416
  405718:	1000ffdf 	b	405698 <_nl_normalize_codeset+0x10c>
  40571c:	ac430000 	sw	v1,0(v0)

00405720 <_nl_explode_name>:
  405720:	27bdffc8 	addiu	sp,sp,-56
  405724:	3c1c004a 	lui	gp,0x4a
  405728:	afb30028 	sw	s3,40(sp)
  40572c:	279ccae0 	addiu	gp,gp,-13600
  405730:	afb10020 	sw	s1,32(sp)
  405734:	afbf0034 	sw	ra,52(sp)
  405738:	afb50030 	sw	s5,48(sp)
  40573c:	afb4002c 	sw	s4,44(sp)
  405740:	afb20024 	sw	s2,36(sp)
  405744:	afb0001c 	sw	s0,28(sp)
  405748:	afbc0010 	sw	gp,16(sp)
  40574c:	acc00000 	sw	zero,0(a2)
  405750:	ace00000 	sw	zero,0(a3)
  405754:	8fb30048 	lw	s3,72(sp)
  405758:	8fb1004c 	lw	s1,76(sp)
  40575c:	ae600000 	sw	zero,0(s3)
  405760:	ae200000 	sw	zero,0(s1)
  405764:	aca40000 	sw	a0,0(a1)
  405768:	80820000 	lb	v0,0(a0)
  40576c:	10400067 	beqz	v0,40590c <_nl_explode_name+0x1ec>
  405770:	2403005f 	li	v1,95
  405774:	24050040 	li	a1,64
  405778:	2408002e 	li	t0,46
  40577c:	10000008 	b	4057a0 <_nl_explode_name+0x80>
  405780:	00808025 	move	s0,a0
  405784:	10450038 	beq	v0,a1,405868 <_nl_explode_name+0x148>
  405788:	00000000 	nop
  40578c:	10480036 	beq	v0,t0,405868 <_nl_explode_name+0x148>
  405790:	00000000 	nop
  405794:	82020001 	lb	v0,1(s0)
  405798:	1040005c 	beqz	v0,40590c <_nl_explode_name+0x1ec>
  40579c:	26100001 	addiu	s0,s0,1
  4057a0:	1443fff8 	bne	v0,v1,405784 <_nl_explode_name+0x64>
  4057a4:	00000000 	nop
  4057a8:	10900058 	beq	a0,s0,40590c <_nl_explode_name+0x1ec>
  4057ac:	26030001 	addiu	v1,s0,1
  4057b0:	a2000000 	sb	zero,0(s0)
  4057b4:	ace30000 	sw	v1,0(a3)
  4057b8:	82020001 	lb	v0,1(s0)
  4057bc:	10400068 	beqz	v0,405960 <_nl_explode_name+0x240>
  4057c0:	2404002e 	li	a0,46
  4057c4:	10000006 	b	4057e0 <_nl_explode_name+0xc0>
  4057c8:	24050040 	li	a1,64
  4057cc:	10450007 	beq	v0,a1,4057ec <_nl_explode_name+0xcc>
  4057d0:	2402002e 	li	v0,46
  4057d4:	80620001 	lb	v0,1(v1)
  4057d8:	10400061 	beqz	v0,405960 <_nl_explode_name+0x240>
  4057dc:	24630001 	addiu	v1,v1,1
  4057e0:	1444fffa 	bne	v0,a0,4057cc <_nl_explode_name+0xac>
  4057e4:	00608025 	move	s0,v1
  4057e8:	2402002e 	li	v0,46
  4057ec:	82050000 	lb	a1,0(s0)
  4057f0:	10a20022 	beq	a1,v0,40587c <_nl_explode_name+0x15c>
  4057f4:	24120004 	li	s2,4
  4057f8:	24020040 	li	v0,64
  4057fc:	14a20044 	bne	a1,v0,405910 <_nl_explode_name+0x1f0>
  405800:	26020001 	addiu	v0,s0,1
  405804:	a2000000 	sb	zero,0(s0)
  405808:	acc20000 	sw	v0,0(a2)
  40580c:	82020001 	lb	v0,1(s0)
  405810:	10400040 	beqz	v0,405914 <_nl_explode_name+0x1f4>
  405814:	8e700000 	lw	s0,0(s3)
  405818:	8ce20000 	lw	v0,0(a3)
  40581c:	14400040 	bnez	v0,405920 <_nl_explode_name+0x200>
  405820:	36520008 	ori	s2,s2,0x8
  405824:	12000007 	beqz	s0,405844 <_nl_explode_name+0x124>
  405828:	8fbf0034 	lw	ra,52(sp)
  40582c:	82020000 	lb	v0,0(s0)
  405830:	14400004 	bnez	v0,405844 <_nl_explode_name+0x124>
  405834:	8fbf0034 	lw	ra,52(sp)
  405838:	2402fffd 	li	v0,-3
  40583c:	02429024 	and	s2,s2,v0
  405840:	8fbf0034 	lw	ra,52(sp)
  405844:	02401025 	move	v0,s2
  405848:	8fb50030 	lw	s5,48(sp)
  40584c:	8fb4002c 	lw	s4,44(sp)
  405850:	8fb30028 	lw	s3,40(sp)
  405854:	8fb20024 	lw	s2,36(sp)
  405858:	8fb10020 	lw	s1,32(sp)
  40585c:	8fb0001c 	lw	s0,28(sp)
  405860:	03e00008 	jr	ra
  405864:	27bd0038 	addiu	sp,sp,56
  405868:	10900028 	beq	a0,s0,40590c <_nl_explode_name+0x1ec>
  40586c:	2402002e 	li	v0,46
  405870:	82050000 	lb	a1,0(s0)
  405874:	14a2ffe0 	bne	a1,v0,4057f8 <_nl_explode_name+0xd8>
  405878:	00009025 	move	s2,zero
  40587c:	26040001 	addiu	a0,s0,1
  405880:	a2000000 	sb	zero,0(s0)
  405884:	ae640000 	sw	a0,0(s3)
  405888:	82050001 	lb	a1,1(s0)
  40588c:	10a00042 	beqz	a1,405998 <_nl_explode_name+0x278>
  405890:	36540002 	ori	s4,s2,0x2
  405894:	24030040 	li	v1,64
  405898:	00808025 	move	s0,a0
  40589c:	10000004 	b	4058b0 <_nl_explode_name+0x190>
  4058a0:	00a01025 	move	v0,a1
  4058a4:	82020001 	lb	v0,1(s0)
  4058a8:	10400022 	beqz	v0,405934 <_nl_explode_name+0x214>
  4058ac:	26100001 	addiu	s0,s0,1
  4058b0:	1443fffc 	bne	v0,v1,4058a4 <_nl_explode_name+0x184>
  4058b4:	00000000 	nop
  4058b8:	10900033 	beq	a0,s0,405988 <_nl_explode_name+0x268>
  4058bc:	8f9980c8 	lw	t9,-32568(gp)
  4058c0:	02042823 	subu	a1,s0,a0
  4058c4:	afa70044 	sw	a3,68(sp)
  4058c8:	0411ff30 	bal	40558c <_nl_normalize_codeset>
  4058cc:	afa60040 	sw	a2,64(sp)
  4058d0:	0040a825 	move	s5,v0
  4058d4:	10400032 	beqz	v0,4059a0 <_nl_explode_name+0x280>
  4058d8:	ae220000 	sw	v0,0(s1)
  4058dc:	3c190042 	lui	t9,0x42
  4058e0:	8e640000 	lw	a0,0(s3)
  4058e4:	27399670 	addiu	t9,t9,-27024
  4058e8:	04114f61 	bal	419670 <strcmp>
  4058ec:	00402825 	move	a1,v0
  4058f0:	8fbc0010 	lw	gp,16(sp)
  4058f4:	8fa60040 	lw	a2,64(sp)
  4058f8:	1040001b 	beqz	v0,405968 <_nl_explode_name+0x248>
  4058fc:	8fa70044 	lw	a3,68(sp)
  405900:	82050000 	lb	a1,0(s0)
  405904:	1000ffbc 	b	4057f8 <_nl_explode_name+0xd8>
  405908:	36520003 	ori	s2,s2,0x3
  40590c:	00009025 	move	s2,zero
  405910:	8e700000 	lw	s0,0(s3)
  405914:	8ce20000 	lw	v0,0(a3)
  405918:	1040ffc2 	beqz	v0,405824 <_nl_explode_name+0x104>
  40591c:	00000000 	nop
  405920:	80420000 	lb	v0,0(v0)
  405924:	1440ffbf 	bnez	v0,405824 <_nl_explode_name+0x104>
  405928:	2402fffb 	li	v0,-5
  40592c:	1000ffbd 	b	405824 <_nl_explode_name+0x104>
  405930:	02429024 	and	s2,s2,v0
  405934:	1490ffe2 	bne	a0,s0,4058c0 <_nl_explode_name+0x1a0>
  405938:	8f9980c8 	lw	t9,-32568(gp)
  40593c:	8ce20000 	lw	v0,0(a3)
  405940:	10400013 	beqz	v0,405990 <_nl_explode_name+0x270>
  405944:	00000000 	nop
  405948:	80420000 	lb	v0,0(v0)
  40594c:	14400010 	bnez	v0,405990 <_nl_explode_name+0x270>
  405950:	2402fffb 	li	v0,-5
  405954:	02809025 	move	s2,s4
  405958:	1000ffb2 	b	405824 <_nl_explode_name+0x104>
  40595c:	02429024 	and	s2,s2,v0
  405960:	1000ffeb 	b	405910 <_nl_explode_name+0x1f0>
  405964:	24120004 	li	s2,4
  405968:	8f99804c 	lw	t9,-32692(gp)
  40596c:	02a02025 	move	a0,s5
  405970:	041148c0 	bal	417c74 <__free>
  405974:	02809025 	move	s2,s4
  405978:	82050000 	lb	a1,0(s0)
  40597c:	8fa60040 	lw	a2,64(sp)
  405980:	1000ff9d 	b	4057f8 <_nl_explode_name+0xd8>
  405984:	8fa70044 	lw	a3,68(sp)
  405988:	1000ff9b 	b	4057f8 <_nl_explode_name+0xd8>
  40598c:	02809025 	move	s2,s4
  405990:	1000ffa6 	b	40582c <_nl_explode_name+0x10c>
  405994:	02809025 	move	s2,s4
  405998:	1000ffdd 	b	405910 <_nl_explode_name+0x1f0>
  40599c:	02809025 	move	s2,s4
  4059a0:	1000ffa7 	b	405840 <_nl_explode_name+0x120>
  4059a4:	2412ffff 	li	s2,-1
	...

004059b0 <__gettext_free_exp>:
  4059b0:	10800023 	beqz	a0,405a40 <__gettext_free_exp+0x90>
  4059b4:	3c1c004a 	lui	gp,0x4a
  4059b8:	8c820000 	lw	v0,0(a0)
  4059bc:	27bdffe0 	addiu	sp,sp,-32
  4059c0:	279ccae0 	addiu	gp,gp,-13600
  4059c4:	24030002 	li	v1,2
  4059c8:	afb00018 	sw	s0,24(sp)
  4059cc:	00808025 	move	s0,a0
  4059d0:	afbf001c 	sw	ra,28(sp)
  4059d4:	1043000f 	beq	v0,v1,405a14 <__gettext_free_exp+0x64>
  4059d8:	afbc0010 	sw	gp,16(sp)
  4059dc:	24030003 	li	v1,3
  4059e0:	1043000a 	beq	v0,v1,405a0c <__gettext_free_exp+0x5c>
  4059e4:	00000000 	nop
  4059e8:	24030001 	li	v1,1
  4059ec:	1043000b 	beq	v0,v1,405a1c <__gettext_free_exp+0x6c>
  4059f0:	00000000 	nop
  4059f4:	8fbf001c 	lw	ra,28(sp)
  4059f8:	02002025 	move	a0,s0
  4059fc:	8f99804c 	lw	t9,-32692(gp)
  405a00:	8fb00018 	lw	s0,24(sp)
  405a04:	1000489b 	b	417c74 <__free>
  405a08:	27bd0020 	addiu	sp,sp,32
  405a0c:	0c10166c 	jal	4059b0 <__gettext_free_exp>
  405a10:	8c840010 	lw	a0,16(a0)
  405a14:	0c10166c 	jal	4059b0 <__gettext_free_exp>
  405a18:	8e04000c 	lw	a0,12(s0)
  405a1c:	0c10166c 	jal	4059b0 <__gettext_free_exp>
  405a20:	8e040008 	lw	a0,8(s0)
  405a24:	02002025 	move	a0,s0
  405a28:	8fbc0010 	lw	gp,16(sp)
  405a2c:	8fbf001c 	lw	ra,28(sp)
  405a30:	8fb00018 	lw	s0,24(sp)
  405a34:	8f99804c 	lw	t9,-32692(gp)
  405a38:	1000488e 	b	417c74 <__free>
  405a3c:	27bd0020 	addiu	sp,sp,32
  405a40:	03e00008 	jr	ra
  405a44:	00000000 	nop

00405a48 <__gettextparse>:
  405a48:	3c1c004a 	lui	gp,0x4a
  405a4c:	27bdfb98 	addiu	sp,sp,-1128
  405a50:	279ccae0 	addiu	gp,gp,-13600
  405a54:	3c070046 	lui	a3,0x46
  405a58:	afb10444 	sw	s1,1092(sp)
  405a5c:	3c110046 	lui	s1,0x46
  405a60:	8f828038 	lw	v0,-32712(gp)
  405a64:	3c090046 	lui	t1,0x46
  405a68:	27a30374 	addiu	v1,sp,884
  405a6c:	afb7045c 	sw	s7,1116(sp)
  405a70:	27a60054 	addiu	a2,sp,84
  405a74:	afb60458 	sw	s6,1112(sp)
  405a78:	afa2003c 	sw	v0,60(sp)
  405a7c:	24f67ac4 	addiu	s6,a3,31428
  405a80:	8c420000 	lw	v0,0(v0)
  405a84:	25377914 	addiu	s7,t1,30996
  405a88:	afb50454 	sw	s5,1108(sp)
  405a8c:	241500c8 	li	s5,200
  405a90:	afb3044c 	sw	s3,1100(sp)
  405a94:	00009825 	move	s3,zero
  405a98:	afa2043c 	sw	v0,1084(sp)
  405a9c:	26227950 	addiu	v0,s1,31056
  405aa0:	afb20448 	sw	s2,1096(sp)
  405aa4:	2412fffe 	li	s2,-2
  405aa8:	afa2001c 	sw	v0,28(sp)
  405aac:	3c020046 	lui	v0,0x46
  405ab0:	afb40450 	sw	s4,1104(sp)
  405ab4:	0060a025 	move	s4,v1
  405ab8:	244278f4 	addiu	v0,v0,30964
  405abc:	afb00440 	sw	s0,1088(sp)
  405ac0:	afbf0464 	sw	ra,1124(sp)
  405ac4:	00608025 	move	s0,v1
  405ac8:	afa20030 	sw	v0,48(sp)
  405acc:	3c020046 	lui	v0,0x46
  405ad0:	afbe0460 	sw	s8,1120(sp)
  405ad4:	afbc0010 	sw	gp,16(sp)
  405ad8:	afa30024 	sw	v1,36(sp)
  405adc:	a3a00374 	sb	zero,884(sp)
  405ae0:	afa0002c 	sw	zero,44(sp)
  405ae4:	afa20034 	sw	v0,52(sp)
  405ae8:	afa40038 	sw	a0,56(sp)
  405aec:	afa60020 	sw	a2,32(sp)
  405af0:	02d31021 	addu	v0,s6,s3
  405af4:	2404fffc 	li	a0,-4
  405af8:	80420000 	lb	v0,0(v0)
  405afc:	10440021 	beq	v0,a0,405b84 <__gettextparse+0x13c>
  405b00:	00406025 	move	t4,v0
  405b04:	2404fffe 	li	a0,-2
  405b08:	124400f0 	beq	s2,a0,405ecc <__gettextparse+0x484>
  405b0c:	8fa30038 	lw	v1,56(sp)
  405b10:	1a4000d3 	blez	s2,405e60 <__gettextparse+0x418>
  405b14:	00002025 	move	a0,zero
  405b18:	24040100 	li	a0,256
  405b1c:	1244016d 	beq	s2,a0,4060d4 <__gettextparse+0x68c>
  405b20:	3c040046 	lui	a0,0x46
  405b24:	248479ac 	addiu	a0,a0,31148
  405b28:	02442021 	addu	a0,s2,a0
  405b2c:	80840000 	lb	a0,0(a0)
  405b30:	00446021 	addu	t4,v0,a0
  405b34:	2d850039 	sltiu	a1,t4,57
  405b38:	10a00012 	beqz	a1,405b84 <__gettextparse+0x13c>
  405b3c:	01972821 	addu	a1,t4,s7
  405b40:	80a50000 	lb	a1,0(a1)
  405b44:	14a4000f 	bne	a1,a0,405b84 <__gettextparse+0x13c>
  405b48:	00000000 	nop
  405b4c:	8fa2001c 	lw	v0,28(sp)
  405b50:	01826021 	addu	t4,t4,v0
  405b54:	81930000 	lb	s3,0(t4)
  405b58:	1a600032 	blez	s3,405c24 <__gettextparse+0x1dc>
  405b5c:	02602025 	move	a0,s3
  405b60:	8fa2002c 	lw	v0,44(sp)
  405b64:	10400002 	beqz	v0,405b70 <__gettextparse+0x128>
  405b68:	2442ffff 	addiu	v0,v0,-1
  405b6c:	afa2002c 	sw	v0,44(sp)
  405b70:	8fa20040 	lw	v0,64(sp)
  405b74:	2412fffe 	li	s2,-2
  405b78:	24c60004 	addiu	a2,a2,4
  405b7c:	10000060 	b	405d00 <__gettextparse+0x2b8>
  405b80:	acc20000 	sw	v0,0(a2)
  405b84:	3c040046 	lui	a0,0x46
  405b88:	24847990 	addiu	a0,a0,31120
  405b8c:	02645821 	addu	t3,s3,a0
  405b90:	817e0000 	lb	s8,0(t3)
  405b94:	17c00024 	bnez	s8,405c28 <__gettextparse+0x1e0>
  405b98:	8fa3002c 	lw	v1,44(sp)
  405b9c:	24040003 	li	a0,3
  405ba0:	14640006 	bne	v1,a0,405bbc <__gettextparse+0x174>
  405ba4:	2405fffc 	li	a1,-4
  405ba8:	1e4000c6 	bgtz	s2,405ec4 <__gettextparse+0x47c>
  405bac:	00000000 	nop
  405bb0:	12400091 	beqz	s2,405df8 <__gettextparse+0x3b0>
  405bb4:	00000000 	nop
  405bb8:	2405fffc 	li	a1,-4
  405bbc:	10000007 	b	405bdc <__gettextparse+0x194>
  405bc0:	240c0001 	li	t4,1
  405bc4:	1214008c 	beq	s0,s4,405df8 <__gettextparse+0x3b0>
  405bc8:	24c6fffc 	addiu	a2,a2,-4
  405bcc:	8202ffff 	lb	v0,-1(s0)
  405bd0:	2610ffff 	addiu	s0,s0,-1
  405bd4:	02c21021 	addu	v0,s6,v0
  405bd8:	80420000 	lb	v0,0(v0)
  405bdc:	1045fff9 	beq	v0,a1,405bc4 <__gettextparse+0x17c>
  405be0:	24420001 	addiu	v0,v0,1
  405be4:	2c440039 	sltiu	a0,v0,57
  405be8:	1080fff6 	beqz	a0,405bc4 <__gettextparse+0x17c>
  405bec:	00572021 	addu	a0,v0,s7
  405bf0:	80840000 	lb	a0,0(a0)
  405bf4:	148cfff3 	bne	a0,t4,405bc4 <__gettextparse+0x17c>
  405bf8:	8fa3001c 	lw	v1,28(sp)
  405bfc:	00431021 	addu	v0,v0,v1
  405c00:	80440000 	lb	a0,0(v0)
  405c04:	1880ffef 	blez	a0,405bc4 <__gettextparse+0x17c>
  405c08:	00809825 	move	s3,a0
  405c0c:	8fa20040 	lw	v0,64(sp)
  405c10:	24c60004 	addiu	a2,a2,4
  405c14:	acc20000 	sw	v0,0(a2)
  405c18:	24020003 	li	v0,3
  405c1c:	10000038 	b	405d00 <__gettextparse+0x2b8>
  405c20:	afa2002c 	sw	v0,44(sp)
  405c24:	0013f023 	negu	s8,s3
  405c28:	8fa20030 	lw	v0,48(sp)
  405c2c:	2fc4000e 	sltiu	a0,s8,14
  405c30:	03c21021 	addu	v0,s8,v0
  405c34:	80530000 	lb	s3,0(v0)
  405c38:	24020001 	li	v0,1
  405c3c:	00531023 	subu	v0,v0,s3
  405c40:	00021080 	sll	v0,v0,0x2
  405c44:	00c21021 	addu	v0,a2,v0
  405c48:	10800012 	beqz	a0,405c94 <__gettextparse+0x24c>
  405c4c:	8c420000 	lw	v0,0(v0)
  405c50:	3c0c0046 	lui	t4,0x46
  405c54:	001e2080 	sll	a0,s8,0x2
  405c58:	258c76f0 	addiu	t4,t4,30448
  405c5c:	01842021 	addu	a0,t4,a0
  405c60:	8c840000 	lw	a0,0(a0)
  405c64:	00800008 	jr	a0
  405c68:	00000000 	nop
  405c6c:	01a02025 	move	a0,t5
  405c70:	afa60044 	sw	a2,68(sp)
  405c74:	0c10166c 	jal	4059b0 <__gettext_free_exp>
  405c78:	afac0028 	sw	t4,40(sp)
  405c7c:	8fac0028 	lw	t4,40(sp)
  405c80:	0c10166c 	jal	4059b0 <__gettext_free_exp>
  405c84:	01802025 	move	a0,t4
  405c88:	00001025 	move	v0,zero
  405c8c:	8fbc0010 	lw	gp,16(sp)
  405c90:	8fa60044 	lw	a2,68(sp)
  405c94:	8fa30034 	lw	v1,52(sp)
  405c98:	00136880 	sll	t5,s3,0x2
  405c9c:	3c0c0046 	lui	t4,0x46
  405ca0:	02138023 	subu	s0,s0,s3
  405ca4:	24647904 	addiu	a0,v1,30980
  405ca8:	03c45821 	addu	t3,s8,a0
  405cac:	81640000 	lb	a0,0(t3)
  405cb0:	00cd5823 	subu	t3,a2,t5
  405cb4:	25660004 	addiu	a2,t3,4
  405cb8:	ad620004 	sw	v0,4(t3)
  405cbc:	2484fff0 	addiu	a0,a0,-16
  405cc0:	25827ac0 	addiu	v0,t4,31424
  405cc4:	82050000 	lb	a1,0(s0)
  405cc8:	00821021 	addu	v0,a0,v0
  405ccc:	80420000 	lb	v0,0(v0)
  405cd0:	00451021 	addu	v0,v0,a1
  405cd4:	2c4b0039 	sltiu	t3,v0,57
  405cd8:	11600004 	beqz	t3,405cec <__gettextparse+0x2a4>
  405cdc:	00575821 	addu	t3,v0,s7
  405ce0:	816b0000 	lb	t3,0(t3)
  405ce4:	1165008b 	beq	t3,a1,405f14 <__gettextparse+0x4cc>
  405ce8:	8fa3001c 	lw	v1,28(sp)
  405cec:	3c020046 	lui	v0,0x46
  405cf0:	2442798c 	addiu	v0,v0,31116
  405cf4:	00822021 	addu	a0,a0,v0
  405cf8:	80840000 	lb	a0,0(a0)
  405cfc:	00809825 	move	s3,a0
  405d00:	26a2ffff 	addiu	v0,s5,-1
  405d04:	a2040001 	sb	a0,1(s0)
  405d08:	26100001 	addiu	s0,s0,1
  405d0c:	02821021 	addu	v0,s4,v0
  405d10:	0202102b 	sltu	v0,s0,v0
  405d14:	14400033 	bnez	v0,405de4 <__gettextparse+0x39c>
  405d18:	02141023 	subu	v0,s0,s4
  405d1c:	00401825 	move	v1,v0
  405d20:	afa20028 	sw	v0,40(sp)
  405d24:	2aa22710 	slti	v0,s5,10000
  405d28:	1040018c 	beqz	v0,40635c <__gettextparse+0x914>
  405d2c:	24700001 	addiu	s0,v1,1
  405d30:	00154040 	sll	t0,s5,0x1
  405d34:	8f9980a4 	lw	t9,-32604(gp)
  405d38:	24022710 	li	v0,10000
  405d3c:	29042711 	slti	a0,t0,10001
  405d40:	0104100b 	movn	v0,t0,a0
  405d44:	00022080 	sll	a0,v0,0x2
  405d48:	0040a825 	move	s5,v0
  405d4c:	00822021 	addu	a0,a0,v0
  405d50:	041145f5 	bal	417528 <__libc_malloc>
  405d54:	24840003 	addiu	a0,a0,3
  405d58:	8fbc0010 	lw	gp,16(sp)
  405d5c:	1040017f 	beqz	v0,40635c <__gettextparse+0x914>
  405d60:	0040f025 	move	s8,v0
  405d64:	8f998088 	lw	t9,-32632(gp)
  405d68:	02003025 	move	a2,s0
  405d6c:	02802825 	move	a1,s4
  405d70:	041153cb 	bal	41aca0 <memcpy>
  405d74:	00402025 	move	a0,v0
  405d78:	03d58821 	addu	s1,s8,s5
  405d7c:	8fbc0010 	lw	gp,16(sp)
  405d80:	00103080 	sll	a2,s0,0x2
  405d84:	8fa50020 	lw	a1,32(sp)
  405d88:	02202025 	move	a0,s1
  405d8c:	8f998088 	lw	t9,-32632(gp)
  405d90:	041153c3 	bal	41aca0 <memcpy>
  405d94:	afa60020 	sw	a2,32(sp)
  405d98:	8fa20024 	lw	v0,36(sp)
  405d9c:	8fbc0010 	lw	gp,16(sp)
  405da0:	12820006 	beq	s4,v0,405dbc <__gettextparse+0x374>
  405da4:	8fa60020 	lw	a2,32(sp)
  405da8:	8f99804c 	lw	t9,-32692(gp)
  405dac:	041147b1 	bal	417c74 <__free>
  405db0:	02802025 	move	a0,s4
  405db4:	8fbc0010 	lw	gp,16(sp)
  405db8:	8fa60020 	lw	a2,32(sp)
  405dbc:	8fa30028 	lw	v1,40(sp)
  405dc0:	26a2ffff 	addiu	v0,s5,-1
  405dc4:	24c6fffc 	addiu	a2,a2,-4
  405dc8:	03c21021 	addu	v0,s8,v0
  405dcc:	03c38021 	addu	s0,s8,v1
  405dd0:	0202102b 	sltu	v0,s0,v0
  405dd4:	1040015e 	beqz	v0,406350 <__gettextparse+0x908>
  405dd8:	02263021 	addu	a2,s1,a2
  405ddc:	afb10020 	sw	s1,32(sp)
  405de0:	03c0a025 	move	s4,s8
  405de4:	24020009 	li	v0,9
  405de8:	1662ff42 	bne	s3,v0,405af4 <__gettextparse+0xac>
  405dec:	02d31021 	addu	v0,s6,s3
  405df0:	10000002 	b	405dfc <__gettextparse+0x3b4>
  405df4:	00008025 	move	s0,zero
  405df8:	24100001 	li	s0,1
  405dfc:	8fa20024 	lw	v0,36(sp)
  405e00:	12820006 	beq	s4,v0,405e1c <__gettextparse+0x3d4>
  405e04:	8fa2003c 	lw	v0,60(sp)
  405e08:	8f99804c 	lw	t9,-32692(gp)
  405e0c:	04114799 	bal	417c74 <__free>
  405e10:	02802025 	move	a0,s4
  405e14:	8fbc0010 	lw	gp,16(sp)
  405e18:	8fa2003c 	lw	v0,60(sp)
  405e1c:	8fa3043c 	lw	v1,1084(sp)
  405e20:	8c420000 	lw	v0,0(v0)
  405e24:	14620167 	bne	v1,v0,4063c4 <__gettextparse+0x97c>
  405e28:	8fbf0464 	lw	ra,1124(sp)
  405e2c:	02001025 	move	v0,s0
  405e30:	8fbe0460 	lw	s8,1120(sp)
  405e34:	8fb7045c 	lw	s7,1116(sp)
  405e38:	8fb60458 	lw	s6,1112(sp)
  405e3c:	8fb50454 	lw	s5,1108(sp)
  405e40:	8fb40450 	lw	s4,1104(sp)
  405e44:	8fb3044c 	lw	s3,1100(sp)
  405e48:	8fb20448 	lw	s2,1096(sp)
  405e4c:	8fb10444 	lw	s1,1092(sp)
  405e50:	8fb00440 	lw	s0,1088(sp)
  405e54:	03e00008 	jr	ra
  405e58:	27bd0468 	addiu	sp,sp,1128
  405e5c:	00002025 	move	a0,zero
  405e60:	1000ff34 	b	405b34 <__gettextparse+0xec>
  405e64:	00009025 	move	s2,zero
  405e68:	8cc2fffc 	lw	v0,-4(a2)
  405e6c:	8ccd0000 	lw	t5,0(a2)
  405e70:	8cccfff8 	lw	t4,-8(a2)
  405e74:	11a0ff7d 	beqz	t5,405c6c <__gettextparse+0x224>
  405e78:	00408825 	move	s1,v0
  405e7c:	1180ff7b 	beqz	t4,405c6c <__gettextparse+0x224>
  405e80:	8f9980a4 	lw	t9,-32604(gp)
  405e84:	24040014 	li	a0,20
  405e88:	afa60048 	sw	a2,72(sp)
  405e8c:	afad0044 	sw	t5,68(sp)
  405e90:	041145a5 	bal	417528 <__libc_malloc>
  405e94:	afac0028 	sw	t4,40(sp)
  405e98:	8fbc0010 	lw	gp,16(sp)
  405e9c:	8fac0028 	lw	t4,40(sp)
  405ea0:	8fad0044 	lw	t5,68(sp)
  405ea4:	1040ff71 	beqz	v0,405c6c <__gettextparse+0x224>
  405ea8:	8fa60048 	lw	a2,72(sp)
  405eac:	24040002 	li	a0,2
  405eb0:	ac510004 	sw	s1,4(v0)
  405eb4:	ac4d000c 	sw	t5,12(v0)
  405eb8:	ac440000 	sw	a0,0(v0)
  405ebc:	1000ff75 	b	405c94 <__gettextparse+0x24c>
  405ec0:	ac4c0008 	sw	t4,8(v0)
  405ec4:	1000ff3c 	b	405bb8 <__gettextparse+0x170>
  405ec8:	2412fffe 	li	s2,-2
  405ecc:	8c650000 	lw	a1,0(v1)
  405ed0:	80a40000 	lb	a0,0(a1)
  405ed4:	1080000b 	beqz	a0,405f04 <__gettextparse+0x4bc>
  405ed8:	8fa30038 	lw	v1,56(sp)
  405edc:	240a0020 	li	t2,32
  405ee0:	240d0009 	li	t5,9
  405ee4:	108a0003 	beq	a0,t2,405ef4 <__gettextparse+0x4ac>
  405ee8:	00000000 	nop
  405eec:	148d006d 	bne	a0,t5,4060a4 <__gettextparse+0x65c>
  405ef0:	24ae0001 	addiu	t6,a1,1
  405ef4:	80a40001 	lb	a0,1(a1)
  405ef8:	1480fffa 	bnez	a0,405ee4 <__gettextparse+0x49c>
  405efc:	24a50001 	addiu	a1,a1,1
  405f00:	8fa30038 	lw	v1,56(sp)
  405f04:	00002025 	move	a0,zero
  405f08:	00009025 	move	s2,zero
  405f0c:	1000ff09 	b	405b34 <__gettextparse+0xec>
  405f10:	ac650000 	sw	a1,0(v1)
  405f14:	00431021 	addu	v0,v0,v1
  405f18:	80440000 	lb	a0,0(v0)
  405f1c:	1000ff78 	b	405d00 <__gettextparse+0x2b8>
  405f20:	00809825 	move	s3,a0
  405f24:	8ccc0000 	lw	t4,0(a2)
  405f28:	11800102 	beqz	t4,406334 <__gettextparse+0x8ec>
  405f2c:	8f9980a4 	lw	t9,-32604(gp)
  405f30:	24040014 	li	a0,20
  405f34:	afa60044 	sw	a2,68(sp)
  405f38:	0411457b 	bal	417528 <__libc_malloc>
  405f3c:	afac0028 	sw	t4,40(sp)
  405f40:	8fbc0010 	lw	gp,16(sp)
  405f44:	8fac0028 	lw	t4,40(sp)
  405f48:	104000fa 	beqz	v0,406334 <__gettextparse+0x8ec>
  405f4c:	8fa60044 	lw	a2,68(sp)
  405f50:	24040001 	li	a0,1
  405f54:	ac4c0008 	sw	t4,8(v0)
  405f58:	ac440000 	sw	a0,0(v0)
  405f5c:	24040002 	li	a0,2
  405f60:	1000ff4c 	b	405c94 <__gettextparse+0x24c>
  405f64:	ac440004 	sw	a0,4(v0)
  405f68:	8ccd0000 	lw	t5,0(a2)
  405f6c:	11a0ff3f 	beqz	t5,405c6c <__gettextparse+0x224>
  405f70:	8cccfff8 	lw	t4,-8(a2)
  405f74:	1180ff3d 	beqz	t4,405c6c <__gettextparse+0x224>
  405f78:	8f9980a4 	lw	t9,-32604(gp)
  405f7c:	24040014 	li	a0,20
  405f80:	afa60048 	sw	a2,72(sp)
  405f84:	afad0044 	sw	t5,68(sp)
  405f88:	04114567 	bal	417528 <__libc_malloc>
  405f8c:	afac0028 	sw	t4,40(sp)
  405f90:	8fbc0010 	lw	gp,16(sp)
  405f94:	8fac0028 	lw	t4,40(sp)
  405f98:	8fad0044 	lw	t5,68(sp)
  405f9c:	1040ff33 	beqz	v0,405c6c <__gettextparse+0x224>
  405fa0:	8fa60048 	lw	a2,72(sp)
  405fa4:	24040002 	li	a0,2
  405fa8:	ac4d000c 	sw	t5,12(v0)
  405fac:	ac4c0008 	sw	t4,8(v0)
  405fb0:	ac440000 	sw	a0,0(v0)
  405fb4:	2404000f 	li	a0,15
  405fb8:	1000ff36 	b	405c94 <__gettextparse+0x24c>
  405fbc:	ac440004 	sw	a0,4(v0)
  405fc0:	8cc40000 	lw	a0,0(a2)
  405fc4:	1080ff8c 	beqz	a0,405df8 <__gettextparse+0x3b0>
  405fc8:	8fa30038 	lw	v1,56(sp)
  405fcc:	1000ff31 	b	405c94 <__gettextparse+0x24c>
  405fd0:	ac640004 	sw	a0,4(v1)
  405fd4:	8ccd0000 	lw	t5,0(a2)
  405fd8:	11a0ff24 	beqz	t5,405c6c <__gettextparse+0x224>
  405fdc:	8cccfff8 	lw	t4,-8(a2)
  405fe0:	1180ff22 	beqz	t4,405c6c <__gettextparse+0x224>
  405fe4:	8f9980a4 	lw	t9,-32604(gp)
  405fe8:	24040014 	li	a0,20
  405fec:	afa60048 	sw	a2,72(sp)
  405ff0:	afad0044 	sw	t5,68(sp)
  405ff4:	0411454c 	bal	417528 <__libc_malloc>
  405ff8:	afac0028 	sw	t4,40(sp)
  405ffc:	8fbc0010 	lw	gp,16(sp)
  406000:	8fac0028 	lw	t4,40(sp)
  406004:	8fad0044 	lw	t5,68(sp)
  406008:	1040ff18 	beqz	v0,405c6c <__gettextparse+0x224>
  40600c:	8fa60048 	lw	a2,72(sp)
  406010:	24040002 	li	a0,2
  406014:	ac4d000c 	sw	t5,12(v0)
  406018:	ac4c0008 	sw	t4,8(v0)
  40601c:	ac440000 	sw	a0,0(v0)
  406020:	2404000e 	li	a0,14
  406024:	1000ff1b 	b	405c94 <__gettextparse+0x24c>
  406028:	ac440004 	sw	a0,4(v0)
  40602c:	1000ff19 	b	405c94 <__gettextparse+0x24c>
  406030:	8cc2fffc 	lw	v0,-4(a2)
  406034:	8ccd0000 	lw	t5,0(a2)
  406038:	8ccefff0 	lw	t6,-16(a2)
  40603c:	11a000ae 	beqz	t5,4062f8 <__gettextparse+0x8b0>
  406040:	8cccfff8 	lw	t4,-8(a2)
  406044:	118000ad 	beqz	t4,4062fc <__gettextparse+0x8b4>
  406048:	01a02025 	move	a0,t5
  40604c:	11c000ab 	beqz	t6,4062fc <__gettextparse+0x8b4>
  406050:	8f9980a4 	lw	t9,-32604(gp)
  406054:	24040014 	li	a0,20
  406058:	afa6004c 	sw	a2,76(sp)
  40605c:	afad0048 	sw	t5,72(sp)
  406060:	afac0044 	sw	t4,68(sp)
  406064:	04114530 	bal	417528 <__libc_malloc>
  406068:	afae0028 	sw	t6,40(sp)
  40606c:	8fbc0010 	lw	gp,16(sp)
  406070:	8fae0028 	lw	t6,40(sp)
  406074:	8fac0044 	lw	t4,68(sp)
  406078:	8fad0048 	lw	t5,72(sp)
  40607c:	1040009e 	beqz	v0,4062f8 <__gettextparse+0x8b0>
  406080:	8fa6004c 	lw	a2,76(sp)
  406084:	24040003 	li	a0,3
  406088:	ac4d0010 	sw	t5,16(v0)
  40608c:	ac4c000c 	sw	t4,12(v0)
  406090:	ac440000 	sw	a0,0(v0)
  406094:	24040010 	li	a0,16
  406098:	ac4e0008 	sw	t6,8(v0)
  40609c:	1000fefd 	b	405c94 <__gettextparse+0x24c>
  4060a0:	ac440004 	sw	a0,4(v0)
  4060a4:	248dfff6 	addiu	t5,a0,-10
  4060a8:	31ad00ff 	andi	t5,t5,0xff
  4060ac:	2daf0073 	sltiu	t7,t5,115
  4060b0:	11e00021 	beqz	t7,406138 <__gettextparse+0x6f0>
  4060b4:	00809025 	move	s2,a0
  4060b8:	3c0f0046 	lui	t7,0x46
  4060bc:	000d6880 	sll	t5,t5,0x2
  4060c0:	25ef7728 	addiu	t7,t7,30504
  4060c4:	01ed6821 	addu	t5,t7,t5
  4060c8:	8dad0000 	lw	t5,0(t5)
  4060cc:	01a00008 	jr	t5
  4060d0:	00000000 	nop
  4060d4:	1000feb8 	b	405bb8 <__gettextparse+0x170>
  4060d8:	24120101 	li	s2,257
  4060dc:	8f9980a4 	lw	t9,-32604(gp)
  4060e0:	24040014 	li	a0,20
  4060e4:	04114510 	bal	417528 <__libc_malloc>
  4060e8:	afa60028 	sw	a2,40(sp)
  4060ec:	8fbc0010 	lw	gp,16(sp)
  4060f0:	1040fee8 	beqz	v0,405c94 <__gettextparse+0x24c>
  4060f4:	8fa60028 	lw	a2,40(sp)
  4060f8:	ac400000 	sw	zero,0(v0)
  4060fc:	1000fee5 	b	405c94 <__gettextparse+0x24c>
  406100:	ac400004 	sw	zero,4(v0)
  406104:	8f9980a4 	lw	t9,-32604(gp)
  406108:	24040014 	li	a0,20
  40610c:	04114506 	bal	417528 <__libc_malloc>
  406110:	afa60028 	sw	a2,40(sp)
  406114:	8fbc0010 	lw	gp,16(sp)
  406118:	1040fede 	beqz	v0,405c94 <__gettextparse+0x24c>
  40611c:	8fa60028 	lw	a2,40(sp)
  406120:	8cc40000 	lw	a0,0(a2)
  406124:	240c0001 	li	t4,1
  406128:	ac400000 	sw	zero,0(v0)
  40612c:	ac4c0004 	sw	t4,4(v0)
  406130:	1000fed8 	b	405c94 <__gettextparse+0x24c>
  406134:	ac440008 	sw	a0,8(v0)
  406138:	8fa30038 	lw	v1,56(sp)
  40613c:	24040002 	li	a0,2
  406140:	24120101 	li	s2,257
  406144:	1000fe7a 	b	405b30 <__gettextparse+0xe8>
  406148:	ac6e0000 	sw	t6,0(v1)
  40614c:	10000008 	b	406170 <__gettextparse+0x728>
  406150:	80a50001 	lb	a1,1(a1)
  406154:	8fa30040 	lw	v1,64(sp)
  406158:	25ce0001 	addiu	t6,t6,1
  40615c:	00032080 	sll	a0,v1,0x2
  406160:	00832021 	addu	a0,a0,v1
  406164:	00042040 	sll	a0,a0,0x1
  406168:	00852021 	addu	a0,a0,a1
  40616c:	81c50000 	lb	a1,0(t6)
  406170:	2483ffd0 	addiu	v1,a0,-48
  406174:	24a4ffd0 	addiu	a0,a1,-48
  406178:	308400ff 	andi	a0,a0,0xff
  40617c:	2c84000a 	sltiu	a0,a0,10
  406180:	1480fff4 	bnez	a0,406154 <__gettextparse+0x70c>
  406184:	afa30040 	sw	v1,64(sp)
  406188:	8fa30038 	lw	v1,56(sp)
  40618c:	2404000b 	li	a0,11
  406190:	24120106 	li	s2,262
  406194:	1000fe66 	b	405b30 <__gettextparse+0xe8>
  406198:	ac6e0000 	sw	t6,0(v1)
  40619c:	80ad0001 	lb	t5,1(a1)
  4061a0:	15a4ffe6 	bne	t5,a0,40613c <__gettextparse+0x6f4>
  4061a4:	8fa30038 	lw	v1,56(sp)
  4061a8:	24ae0002 	addiu	t6,a1,2
  4061ac:	8fa30038 	lw	v1,56(sp)
  4061b0:	1880ff2a 	blez	a0,405e5c <__gettextparse+0x414>
  4061b4:	ac6e0000 	sw	t6,0(v1)
  4061b8:	3c050046 	lui	a1,0x46
  4061bc:	24a579ac 	addiu	a1,a1,31148
  4061c0:	00a42021 	addu	a0,a1,a0
  4061c4:	1000fe5a 	b	405b30 <__gettextparse+0xe8>
  4061c8:	80840000 	lb	a0,0(a0)
  4061cc:	8fa30038 	lw	v1,56(sp)
  4061d0:	24040009 	li	a0,9
  4061d4:	24120104 	li	s2,260
  4061d8:	ac6e0000 	sw	t6,0(v1)
  4061dc:	24030007 	li	v1,7
  4061e0:	1000fe53 	b	405b30 <__gettextparse+0xe8>
  4061e4:	afa30040 	sw	v1,64(sp)
  4061e8:	8fa30038 	lw	v1,56(sp)
  4061ec:	24040009 	li	a0,9
  4061f0:	24120104 	li	s2,260
  4061f4:	ac6e0000 	sw	t6,0(v1)
  4061f8:	24030006 	li	v1,6
  4061fc:	1000fe4c 	b	405b30 <__gettextparse+0xe8>
  406200:	afa30040 	sw	v1,64(sp)
  406204:	8fa30038 	lw	v1,56(sp)
  406208:	2404000a 	li	a0,10
  40620c:	24120105 	li	s2,261
  406210:	ac6e0000 	sw	t6,0(v1)
  406214:	24030003 	li	v1,3
  406218:	1000fe45 	b	405b30 <__gettextparse+0xe8>
  40621c:	afa30040 	sw	v1,64(sp)
  406220:	8fa30038 	lw	v1,56(sp)
  406224:	2404000a 	li	a0,10
  406228:	24120105 	li	s2,261
  40622c:	ac6e0000 	sw	t6,0(v1)
  406230:	24030005 	li	v1,5
  406234:	1000fe3e 	b	405b30 <__gettextparse+0xe8>
  406238:	afa30040 	sw	v1,64(sp)
  40623c:	80aa0001 	lb	t2,1(a1)
  406240:	2404003d 	li	a0,61
  406244:	11440047 	beq	t2,a0,406364 <__gettextparse+0x91c>
  406248:	8fa30038 	lw	v1,56(sp)
  40624c:	24040006 	li	a0,6
  406250:	24120021 	li	s2,33
  406254:	1000fe36 	b	405b30 <__gettextparse+0xe8>
  406258:	ac6e0000 	sw	t6,0(v1)
  40625c:	80aa0001 	lb	t2,1(a1)
  406260:	2404003d 	li	a0,61
  406264:	1144004f 	beq	t2,a0,4063a4 <__gettextparse+0x95c>
  406268:	8fa30038 	lw	v1,56(sp)
  40626c:	24040008 	li	a0,8
  406270:	24120103 	li	s2,259
  406274:	ac6e0000 	sw	t6,0(v1)
  406278:	24030009 	li	v1,9
  40627c:	1000fe2c 	b	405b30 <__gettextparse+0xe8>
  406280:	afa30040 	sw	v1,64(sp)
  406284:	80aa0001 	lb	t2,1(a1)
  406288:	2404003d 	li	a0,61
  40628c:	1544ffab 	bne	t2,a0,40613c <__gettextparse+0x6f4>
  406290:	8fa30038 	lw	v1,56(sp)
  406294:	2403000c 	li	v1,12
  406298:	24a50002 	addiu	a1,a1,2
  40629c:	afa30040 	sw	v1,64(sp)
  4062a0:	24040007 	li	a0,7
  4062a4:	8fa30038 	lw	v1,56(sp)
  4062a8:	24120102 	li	s2,258
  4062ac:	1000fe20 	b	405b30 <__gettextparse+0xe8>
  4062b0:	ac650000 	sw	a1,0(v1)
  4062b4:	8fa30038 	lw	v1,56(sp)
  4062b8:	2404000a 	li	a0,10
  4062bc:	24120105 	li	s2,261
  4062c0:	ac6e0000 	sw	t6,0(v1)
  4062c4:	24030004 	li	v1,4
  4062c8:	1000fe19 	b	405b30 <__gettextparse+0xe8>
  4062cc:	afa30040 	sw	v1,64(sp)
  4062d0:	80aa0001 	lb	t2,1(a1)
  4062d4:	2404003d 	li	a0,61
  4062d8:	1144002a 	beq	t2,a0,406384 <__gettextparse+0x93c>
  4062dc:	8fa30038 	lw	v1,56(sp)
  4062e0:	24040008 	li	a0,8
  4062e4:	24120103 	li	s2,259
  4062e8:	ac6e0000 	sw	t6,0(v1)
  4062ec:	24030008 	li	v1,8
  4062f0:	1000fe0f 	b	405b30 <__gettextparse+0xe8>
  4062f4:	afa30040 	sw	v1,64(sp)
  4062f8:	01a02025 	move	a0,t5
  4062fc:	afa60048 	sw	a2,72(sp)
  406300:	afae0028 	sw	t6,40(sp)
  406304:	0c10166c 	jal	4059b0 <__gettext_free_exp>
  406308:	afac0044 	sw	t4,68(sp)
  40630c:	8fac0044 	lw	t4,68(sp)
  406310:	0c10166c 	jal	4059b0 <__gettext_free_exp>
  406314:	01802025 	move	a0,t4
  406318:	8fae0028 	lw	t6,40(sp)
  40631c:	0c10166c 	jal	4059b0 <__gettext_free_exp>
  406320:	01c02025 	move	a0,t6
  406324:	00001025 	move	v0,zero
  406328:	8fbc0010 	lw	gp,16(sp)
  40632c:	1000fe59 	b	405c94 <__gettextparse+0x24c>
  406330:	8fa60048 	lw	a2,72(sp)
  406334:	01802025 	move	a0,t4
  406338:	0c10166c 	jal	4059b0 <__gettext_free_exp>
  40633c:	afa60028 	sw	a2,40(sp)
  406340:	00001025 	move	v0,zero
  406344:	8fbc0010 	lw	gp,16(sp)
  406348:	1000fe52 	b	405c94 <__gettextparse+0x24c>
  40634c:	8fa60028 	lw	a2,40(sp)
  406350:	24100001 	li	s0,1
  406354:	1000feac 	b	405e08 <__gettextparse+0x3c0>
  406358:	03c0a025 	move	s4,s8
  40635c:	1000fea7 	b	405dfc <__gettextparse+0x3b4>
  406360:	24100002 	li	s0,2
  406364:	2403000d 	li	v1,13
  406368:	24a50002 	addiu	a1,a1,2
  40636c:	afa30040 	sw	v1,64(sp)
  406370:	24040007 	li	a0,7
  406374:	8fa30038 	lw	v1,56(sp)
  406378:	24120102 	li	s2,258
  40637c:	1000fdec 	b	405b30 <__gettextparse+0xe8>
  406380:	ac650000 	sw	a1,0(v1)
  406384:	2403000a 	li	v1,10
  406388:	24a50002 	addiu	a1,a1,2
  40638c:	afa30040 	sw	v1,64(sp)
  406390:	24040008 	li	a0,8
  406394:	8fa30038 	lw	v1,56(sp)
  406398:	24120103 	li	s2,259
  40639c:	1000fde4 	b	405b30 <__gettextparse+0xe8>
  4063a0:	ac650000 	sw	a1,0(v1)
  4063a4:	2403000b 	li	v1,11
  4063a8:	24a50002 	addiu	a1,a1,2
  4063ac:	afa30040 	sw	v1,64(sp)
  4063b0:	24040008 	li	a0,8
  4063b4:	8fa30038 	lw	v1,56(sp)
  4063b8:	24120103 	li	s2,259
  4063bc:	1000fddc 	b	405b30 <__gettextparse+0xe8>
  4063c0:	ac650000 	sw	a1,0(v1)
  4063c4:	8f998054 	lw	t9,-32684(gp)
  4063c8:	04116439 	bal	41f4b0 <__stack_chk_fail>
  4063cc:	00000000 	nop

004063d0 <__gettext_extract_plural>:
  4063d0:	3c1c004a 	lui	gp,0x4a
  4063d4:	27bdffb8 	addiu	sp,sp,-72
  4063d8:	279ccae0 	addiu	gp,gp,-13600
  4063dc:	afb30038 	sw	s3,56(sp)
  4063e0:	8f938038 	lw	s3,-32712(gp)
  4063e4:	afb10030 	sw	s1,48(sp)
  4063e8:	00a08825 	move	s1,a1
  4063ec:	afb0002c 	sw	s0,44(sp)
  4063f0:	00c08025 	move	s0,a2
  4063f4:	afbf0044 	sw	ra,68(sp)
  4063f8:	afb50040 	sw	s5,64(sp)
  4063fc:	afb4003c 	sw	s4,60(sp)
  406400:	afb20034 	sw	s2,52(sp)
  406404:	afbc0010 	sw	gp,16(sp)
  406408:	8e620000 	lw	v0,0(s3)
  40640c:	afa20024 	sw	v0,36(sp)
  406410:	1080003a 	beqz	a0,4064fc <__gettext_extract_plural+0x12c>
  406414:	3c150042 	lui	s5,0x42
  406418:	3c050046 	lui	a1,0x46
  40641c:	26b5a23c 	addiu	s5,s5,-24004
  406420:	24a57ae0 	addiu	a1,a1,31456
  406424:	02a0c825 	move	t9,s5
  406428:	04114f84 	bal	41a23c <strstr>
  40642c:	0080a025 	move	s4,a0
  406430:	8fbc0010 	lw	gp,16(sp)
  406434:	10400031 	beqz	v0,4064fc <__gettext_extract_plural+0x12c>
  406438:	00409025 	move	s2,v0
  40643c:	3c050046 	lui	a1,0x46
  406440:	02802025 	move	a0,s4
  406444:	02a0c825 	move	t9,s5
  406448:	04114f7c 	bal	41a23c <strstr>
  40644c:	24a57ae8 	addiu	a1,a1,31464
  406450:	1040002a 	beqz	v0,4064fc <__gettext_extract_plural+0x12c>
  406454:	8fbc0010 	lw	gp,16(sp)
  406458:	80470009 	lb	a3,9(v0)
  40645c:	10e00027 	beqz	a3,4064fc <__gettext_extract_plural+0x12c>
  406460:	24540009 	addiu	s4,v0,9
  406464:	8f828398 	lw	v0,-31848(gp)
  406468:	7c03e83b 	rdhwr	v1,$29
  40646c:	00431021 	addu	v0,v0,v1
  406470:	10000004 	b	406484 <__gettext_extract_plural+0xb4>
  406474:	8c440000 	lw	a0,0(v0)
  406478:	82870001 	lb	a3,1(s4)
  40647c:	10e0001f 	beqz	a3,4064fc <__gettext_extract_plural+0x12c>
  406480:	26940001 	addiu	s4,s4,1
  406484:	30e700ff 	andi	a3,a3,0xff
  406488:	00071040 	sll	v0,a3,0x1
  40648c:	00821021 	addu	v0,a0,v0
  406490:	94430000 	lhu	v1,0(v0)
  406494:	30630020 	andi	v1,v1,0x20
  406498:	1460fff7 	bnez	v1,406478 <__gettext_extract_plural+0xa8>
  40649c:	24e7ffd0 	addiu	a3,a3,-48
  4064a0:	2ce7000a 	sltiu	a3,a3,10
  4064a4:	10e00015 	beqz	a3,4064fc <__gettext_extract_plural+0x12c>
  4064a8:	3c190040 	lui	t9,0x40
  4064ac:	2406000a 	li	a2,10
  4064b0:	27a50018 	addiu	a1,sp,24
  4064b4:	27397640 	addiu	t9,t9,30272
  4064b8:	04110461 	bal	407640 <__strtoul>
  4064bc:	02802025 	move	a0,s4
  4064c0:	8fa30018 	lw	v1,24(sp)
  4064c4:	1074000d 	beq	v1,s4,4064fc <__gettext_extract_plural+0x12c>
  4064c8:	8fbc0010 	lw	gp,16(sp)
  4064cc:	3c190040 	lui	t9,0x40
  4064d0:	ae020000 	sw	v0,0(s0)
  4064d4:	26520007 	addiu	s2,s2,7
  4064d8:	27a4001c 	addiu	a0,sp,28
  4064dc:	27395a48 	addiu	t9,t9,23112
  4064e0:	0411fd59 	bal	405a48 <__gettextparse>
  4064e4:	afb2001c 	sw	s2,28(sp)
  4064e8:	14400004 	bnez	v0,4064fc <__gettext_extract_plural+0x12c>
  4064ec:	8fbc0010 	lw	gp,16(sp)
  4064f0:	8fa20020 	lw	v0,32(sp)
  4064f4:	10000006 	b	406510 <__gettext_extract_plural+0x140>
  4064f8:	ae220000 	sw	v0,0(s1)
  4064fc:	3c020049 	lui	v0,0x49
  406500:	244210c8 	addiu	v0,v0,4296
  406504:	ae220000 	sw	v0,0(s1)
  406508:	24020002 	li	v0,2
  40650c:	ae020000 	sw	v0,0(s0)
  406510:	8fa30024 	lw	v1,36(sp)
  406514:	8e620000 	lw	v0,0(s3)
  406518:	14620009 	bne	v1,v0,406540 <__gettext_extract_plural+0x170>
  40651c:	8fbf0044 	lw	ra,68(sp)
  406520:	8fb50040 	lw	s5,64(sp)
  406524:	8fb4003c 	lw	s4,60(sp)
  406528:	8fb30038 	lw	s3,56(sp)
  40652c:	8fb20034 	lw	s2,52(sp)
  406530:	8fb10030 	lw	s1,48(sp)
  406534:	8fb0002c 	lw	s0,44(sp)
  406538:	03e00008 	jr	ra
  40653c:	27bd0048 	addiu	sp,sp,72
  406540:	8f998054 	lw	t9,-32684(gp)
  406544:	041163da 	bal	41f4b0 <__stack_chk_fail>
  406548:	00000000 	nop
  40654c:	00000000 	nop

00406550 <__hash_string>:
  406550:	80820000 	lb	v0,0(a0)
  406554:	10400013 	beqz	v0,4065a4 <__hash_string+0x54>
  406558:	24840001 	addiu	a0,a0,1
  40655c:	3c07f000 	lui	a3,0xf000
  406560:	304200ff 	andi	v0,v0,0xff
  406564:	80830000 	lb	v1,0(a0)
  406568:	00023100 	sll	a2,v0,0x4
  40656c:	24840001 	addiu	a0,a0,1
  406570:	1060000c 	beqz	v1,4065a4 <__hash_string+0x54>
  406574:	306500ff 	andi	a1,v1,0xff
  406578:	00a61021 	addu	v0,a1,a2
  40657c:	00471824 	and	v1,v0,a3
  406580:	7c45d800 	ext	a1,v0,0x0,0x1c
  406584:	1060fff7 	beqz	v1,406564 <__hash_string+0x14>
  406588:	00033602 	srl	a2,v1,0x18
  40658c:	80830000 	lb	v1,0(a0)
  406590:	00c51026 	xor	v0,a2,a1
  406594:	00023100 	sll	a2,v0,0x4
  406598:	24840001 	addiu	a0,a0,1
  40659c:	1460fff6 	bnez	v1,406578 <__hash_string+0x28>
  4065a0:	306500ff 	andi	a1,v1,0xff
  4065a4:	03e00008 	jr	ra
  4065a8:	00000000 	nop
  4065ac:	00000000 	nop

004065b0 <_setjmp>:
  4065b0:	3c1c004a 	lui	gp,0x4a
  4065b4:	279ccae0 	addiu	gp,gp,-13600
  4065b8:	8f9980cc 	lw	t9,-32564(gp)
  4065bc:	03200008 	jr	t9
  4065c0:	00002825 	move	a1,zero
	...

004065d0 <raise>:
  4065d0:	3c1c004a 	lui	gp,0x4a
  4065d4:	27bdfed0 	addiu	sp,sp,-304
  4065d8:	279ccae0 	addiu	gp,gp,-13600
  4065dc:	3c020046 	lui	v0,0x46
  4065e0:	afb10124 	sw	s1,292(sp)
  4065e4:	27a5009c 	addiu	a1,sp,156
  4065e8:	8f918038 	lw	s1,-32712(gp)
  4065ec:	24427b30 	addiu	v0,v0,31536
  4065f0:	afb00120 	sw	s0,288(sp)
  4065f4:	00a01825 	move	v1,a1
  4065f8:	24470080 	addiu	a3,v0,128
  4065fc:	afbf012c 	sw	ra,300(sp)
  406600:	afb20128 	sw	s2,296(sp)
  406604:	00808025 	move	s0,a0
  406608:	afbc0010 	sw	gp,16(sp)
  40660c:	8e260000 	lw	a2,0(s1)
  406610:	afa6011c 	sw	a2,284(sp)
  406614:	8c490000 	lw	t1,0(v0)
  406618:	24420010 	addiu	v0,v0,16
  40661c:	24630010 	addiu	v1,v1,16
  406620:	ac69fff0 	sw	t1,-16(v1)
  406624:	8c48fff4 	lw	t0,-12(v0)
  406628:	8c46fff8 	lw	a2,-8(v0)
  40662c:	8c44fffc 	lw	a0,-4(v0)
  406630:	ac68fff4 	sw	t0,-12(v1)
  406634:	ac66fff8 	sw	a2,-8(v1)
  406638:	1447fff6 	bne	v0,a3,406614 <raise+0x44>
  40663c:	ac64fffc 	sw	a0,-4(v1)
  406640:	2402fffe 	li	v0,-2
  406644:	27b2001c 	addiu	s2,sp,28
  406648:	afa200a0 	sw	v0,160(sp)
  40664c:	3c027fff 	lui	v0,0x7fff
  406650:	24040001 	li	a0,1
  406654:	3442ffff 	ori	v0,v0,0xffff
  406658:	24070010 	li	a3,16
  40665c:	afa2009c 	sw	v0,156(sp)
  406660:	02403025 	move	a2,s2
  406664:	24021063 	li	v0,4195
  406668:	0000000c 	syscall
  40666c:	24020fb4 	li	v0,4020
  406670:	0000000c 	syscall
  406674:	00402025 	move	a0,v0
  406678:	2402107e 	li	v0,4222
  40667c:	0000000c 	syscall
  406680:	00402825 	move	a1,v0
  406684:	02003025 	move	a2,s0
  406688:	240210aa 	li	v0,4266
  40668c:	0000000c 	syscall
  406690:	14e00011 	bnez	a3,4066d8 <raise+0x108>
  406694:	00408025 	move	s0,v0
  406698:	24040003 	li	a0,3
  40669c:	00003025 	move	a2,zero
  4066a0:	24070010 	li	a3,16
  4066a4:	02402825 	move	a1,s2
  4066a8:	24021063 	li	v0,4195
  4066ac:	0000000c 	syscall
  4066b0:	8fa3011c 	lw	v1,284(sp)
  4066b4:	8e220000 	lw	v0,0(s1)
  4066b8:	1462000d 	bne	v1,v0,4066f0 <raise+0x120>
  4066bc:	8fbf012c 	lw	ra,300(sp)
  4066c0:	02001025 	move	v0,s0
  4066c4:	8fb20128 	lw	s2,296(sp)
  4066c8:	8fb10124 	lw	s1,292(sp)
  4066cc:	8fb00120 	lw	s0,288(sp)
  4066d0:	03e00008 	jr	ra
  4066d4:	27bd0130 	addiu	sp,sp,304
  4066d8:	8f8283d0 	lw	v0,-31792(gp)
  4066dc:	7c03e83b 	rdhwr	v1,$29
  4066e0:	00431021 	addu	v0,v0,v1
  4066e4:	ac500000 	sw	s0,0(v0)
  4066e8:	1000ffeb 	b	406698 <raise+0xc8>
  4066ec:	2410ffff 	li	s0,-1
  4066f0:	8f998054 	lw	t9,-32684(gp)
  4066f4:	0411636e 	bal	41f4b0 <__stack_chk_fail>
  4066f8:	00000000 	nop
  4066fc:	00000000 	nop

00406700 <msort_with_tmp.part.0>:
  406700:	27bdffb8 	addiu	sp,sp,-72
  406704:	8c830000 	lw	v1,0(a0)
  406708:	3c1c004a 	lui	gp,0x4a
  40670c:	24020001 	li	v0,1
  406710:	afb20028 	sw	s2,40(sp)
  406714:	00069042 	srl	s2,a2,0x1
  406718:	279ccae0 	addiu	gp,gp,-13600
  40671c:	afb7003c 	sw	s7,60(sp)
  406720:	72433802 	mul	a3,s2,v1
  406724:	afb60038 	sw	s6,56(sp)
  406728:	afb40030 	sw	s4,48(sp)
  40672c:	00a0b825 	move	s7,a1
  406730:	afb10024 	sw	s1,36(sp)
  406734:	0080a025 	move	s4,a0
  406738:	00d28823 	subu	s1,a2,s2
  40673c:	afbf0044 	sw	ra,68(sp)
  406740:	afbe0040 	sw	s8,64(sp)
  406744:	afb50034 	sw	s5,52(sp)
  406748:	afb3002c 	sw	s3,44(sp)
  40674c:	00e5b021 	addu	s6,a3,a1
  406750:	afb00020 	sw	s0,32(sp)
  406754:	afbc0010 	sw	gp,16(sp)
  406758:	12420004 	beq	s2,v0,40676c <msort_with_tmp.part.0+0x6c>
  40675c:	afa6001c 	sw	a2,28(sp)
  406760:	0c1019c0 	jal	406700 <msort_with_tmp.part.0>
  406764:	02403025 	move	a2,s2
  406768:	8fbc0010 	lw	gp,16(sp)
  40676c:	2e220002 	sltiu	v0,s1,2
  406770:	14400005 	bnez	v0,406788 <msort_with_tmp.part.0+0x88>
  406774:	02203025 	move	a2,s1
  406778:	02c02825 	move	a1,s6
  40677c:	0c1019c0 	jal	406700 <msort_with_tmp.part.0>
  406780:	02802025 	move	a0,s4
  406784:	8fbc0010 	lw	gp,16(sp)
  406788:	8e830008 	lw	v1,8(s4)
  40678c:	24040002 	li	a0,2
  406790:	8e820004 	lw	v0,4(s4)
  406794:	8e900010 	lw	s0,16(s4)
  406798:	8e930000 	lw	s3,0(s4)
  40679c:	8e95000c 	lw	s5,12(s4)
  4067a0:	1044008e 	beq	v0,a0,4069dc <msort_with_tmp.part.0+0x2dc>
  4067a4:	afa30018 	sw	v1,24(sp)
  4067a8:	2c440003 	sltiu	a0,v0,3
  4067ac:	10800032 	beqz	a0,406878 <msort_with_tmp.part.0+0x178>
  4067b0:	00000000 	nop
  4067b4:	1040001f 	beqz	v0,406834 <msort_with_tmp.part.0+0x134>
  4067b8:	02e0f025 	move	s8,s7
  4067bc:	12200010 	beqz	s1,406800 <msort_with_tmp.part.0+0x100>
  4067c0:	02c02825 	move	a1,s6
  4067c4:	8fb90018 	lw	t9,24(sp)
  4067c8:	03c02025 	move	a0,s8
  4067cc:	0320f809 	jalr	t9
  4067d0:	02a03025 	move	a2,s5
  4067d4:	18400077 	blez	v0,4069b4 <msort_with_tmp.part.0+0x2b4>
  4067d8:	8fbc0010 	lw	gp,16(sp)
  4067dc:	8ec50004 	lw	a1,4(s6)
  4067e0:	26100008 	addiu	s0,s0,8
  4067e4:	8ec40000 	lw	a0,0(s6)
  4067e8:	2631ffff 	addiu	s1,s1,-1
  4067ec:	26d60008 	addiu	s6,s6,8
  4067f0:	ae05fffc 	sw	a1,-4(s0)
  4067f4:	ae04fff8 	sw	a0,-8(s0)
  4067f8:	1620fff2 	bnez	s1,4067c4 <msort_with_tmp.part.0+0xc4>
  4067fc:	02c02825 	move	a1,s6
  406800:	72723002 	mul	a2,s3,s2
  406804:	8f998088 	lw	t9,-32632(gp)
  406808:	03c02825 	move	a1,s8
  40680c:	04115124 	bal	41aca0 <memcpy>
  406810:	02002025 	move	a0,s0
  406814:	10000039 	b	4068fc <msort_with_tmp.part.0+0x1fc>
  406818:	8fbc0010 	lw	gp,16(sp)
  40681c:	8fc20000 	lw	v0,0(s8)
  406820:	2652ffff 	addiu	s2,s2,-1
  406824:	26100004 	addiu	s0,s0,4
  406828:	27de0004 	addiu	s8,s8,4
  40682c:	12400030 	beqz	s2,4068f0 <msort_with_tmp.part.0+0x1f0>
  406830:	ae02fffc 	sw	v0,-4(s0)
  406834:	1220fff2 	beqz	s1,406800 <msort_with_tmp.part.0+0x100>
  406838:	02c02825 	move	a1,s6
  40683c:	8fb90018 	lw	t9,24(sp)
  406840:	03c02025 	move	a0,s8
  406844:	0320f809 	jalr	t9
  406848:	02a03025 	move	a2,s5
  40684c:	1840fff3 	blez	v0,40681c <msort_with_tmp.part.0+0x11c>
  406850:	8fbc0010 	lw	gp,16(sp)
  406854:	8ec20000 	lw	v0,0(s6)
  406858:	2631ffff 	addiu	s1,s1,-1
  40685c:	26d60004 	addiu	s6,s6,4
  406860:	26100004 	addiu	s0,s0,4
  406864:	02c02825 	move	a1,s6
  406868:	1620fff4 	bnez	s1,40683c <msort_with_tmp.part.0+0x13c>
  40686c:	ae02fffc 	sw	v0,-4(s0)
  406870:	1000ffe4 	b	406804 <msort_with_tmp.part.0+0x104>
  406874:	72723002 	mul	a2,s3,s2
  406878:	24040003 	li	a0,3
  40687c:	14440037 	bne	v0,a0,40695c <msort_with_tmp.part.0+0x25c>
  406880:	02e0f025 	move	s8,s7
  406884:	1220ffde 	beqz	s1,406800 <msort_with_tmp.part.0+0x100>
  406888:	02a03025 	move	a2,s5
  40688c:	8fc40000 	lw	a0,0(s8)
  406890:	8fb90018 	lw	t9,24(sp)
  406894:	0320f809 	jalr	t9
  406898:	8ec50000 	lw	a1,0(s6)
  40689c:	1840000e 	blez	v0,4068d8 <msort_with_tmp.part.0+0x1d8>
  4068a0:	8fbc0010 	lw	gp,16(sp)
  4068a4:	8ec20000 	lw	v0,0(s6)
  4068a8:	2631ffff 	addiu	s1,s1,-1
  4068ac:	26100004 	addiu	s0,s0,4
  4068b0:	26d60004 	addiu	s6,s6,4
  4068b4:	02a03025 	move	a2,s5
  4068b8:	1220ffd1 	beqz	s1,406800 <msort_with_tmp.part.0+0x100>
  4068bc:	ae02fffc 	sw	v0,-4(s0)
  4068c0:	8fc40000 	lw	a0,0(s8)
  4068c4:	8fb90018 	lw	t9,24(sp)
  4068c8:	0320f809 	jalr	t9
  4068cc:	8ec50000 	lw	a1,0(s6)
  4068d0:	1c40fff4 	bgtz	v0,4068a4 <msort_with_tmp.part.0+0x1a4>
  4068d4:	8fbc0010 	lw	gp,16(sp)
  4068d8:	8fc20000 	lw	v0,0(s8)
  4068dc:	2652ffff 	addiu	s2,s2,-1
  4068e0:	26100004 	addiu	s0,s0,4
  4068e4:	27de0004 	addiu	s8,s8,4
  4068e8:	1640ffe6 	bnez	s2,406884 <msort_with_tmp.part.0+0x184>
  4068ec:	ae02fffc 	sw	v0,-4(s0)
  4068f0:	8fa2001c 	lw	v0,28(sp)
  4068f4:	00511023 	subu	v0,v0,s1
  4068f8:	afa2001c 	sw	v0,28(sp)
  4068fc:	8fa2001c 	lw	v0,28(sp)
  406900:	02e02025 	move	a0,s7
  406904:	8e850010 	lw	a1,16(s4)
  406908:	8fbf0044 	lw	ra,68(sp)
  40690c:	72623002 	mul	a2,s3,v0
  406910:	8fbe0040 	lw	s8,64(sp)
  406914:	8fb7003c 	lw	s7,60(sp)
  406918:	8fb60038 	lw	s6,56(sp)
  40691c:	8fb50034 	lw	s5,52(sp)
  406920:	8fb40030 	lw	s4,48(sp)
  406924:	8fb3002c 	lw	s3,44(sp)
  406928:	8fb20028 	lw	s2,40(sp)
  40692c:	8fb10024 	lw	s1,36(sp)
  406930:	8fb00020 	lw	s0,32(sp)
  406934:	8f998088 	lw	t9,-32632(gp)
  406938:	100050d9 	b	41aca0 <memcpy>
  40693c:	27bd0048 	addiu	sp,sp,72
  406940:	2652ffff 	addiu	s2,s2,-1
  406944:	041150d6 	bal	41aca0 <memcpy>
  406948:	03c02825 	move	a1,s8
  40694c:	02138021 	addu	s0,s0,s3
  406950:	8fbc0010 	lw	gp,16(sp)
  406954:	1240ffe6 	beqz	s2,4068f0 <msort_with_tmp.part.0+0x1f0>
  406958:	03d3f021 	addu	s8,s8,s3
  40695c:	1220ffa8 	beqz	s1,406800 <msort_with_tmp.part.0+0x100>
  406960:	02c02825 	move	a1,s6
  406964:	8fb90018 	lw	t9,24(sp)
  406968:	03c02025 	move	a0,s8
  40696c:	0320f809 	jalr	t9
  406970:	02a03025 	move	a2,s5
  406974:	02c02825 	move	a1,s6
  406978:	8fbc0010 	lw	gp,16(sp)
  40697c:	02002025 	move	a0,s0
  406980:	02603025 	move	a2,s3
  406984:	8f888088 	lw	t0,-32632(gp)
  406988:	1840ffed 	blez	v0,406940 <msort_with_tmp.part.0+0x240>
  40698c:	0100c825 	move	t9,t0
  406990:	041150c3 	bal	41aca0 <memcpy>
  406994:	02d3b021 	addu	s6,s6,s3
  406998:	2631ffff 	addiu	s1,s1,-1
  40699c:	8fbc0010 	lw	gp,16(sp)
  4069a0:	02138021 	addu	s0,s0,s3
  4069a4:	1620ffef 	bnez	s1,406964 <msort_with_tmp.part.0+0x264>
  4069a8:	02c02825 	move	a1,s6
  4069ac:	1000ff95 	b	406804 <msort_with_tmp.part.0+0x104>
  4069b0:	72723002 	mul	a2,s3,s2
  4069b4:	8fc50004 	lw	a1,4(s8)
  4069b8:	26100008 	addiu	s0,s0,8
  4069bc:	8fc40000 	lw	a0,0(s8)
  4069c0:	2652ffff 	addiu	s2,s2,-1
  4069c4:	27de0008 	addiu	s8,s8,8
  4069c8:	ae05fffc 	sw	a1,-4(s0)
  4069cc:	1640ff7b 	bnez	s2,4067bc <msort_with_tmp.part.0+0xbc>
  4069d0:	ae04fff8 	sw	a0,-8(s0)
  4069d4:	1000ffc7 	b	4068f4 <msort_with_tmp.part.0+0x1f4>
  4069d8:	8fa2001c 	lw	v0,28(sp)
  4069dc:	02e0f025 	move	s8,s7
  4069e0:	1220ff87 	beqz	s1,406800 <msort_with_tmp.part.0+0x100>
  4069e4:	8fb90018 	lw	t9,24(sp)
  4069e8:	02a03025 	move	a2,s5
  4069ec:	02c02825 	move	a1,s6
  4069f0:	0320f809 	jalr	t9
  4069f4:	03c02025 	move	a0,s8
  4069f8:	02133021 	addu	a2,s0,s3
  4069fc:	18400012 	blez	v0,406a48 <msort_with_tmp.part.0+0x348>
  406a00:	8fbc0010 	lw	gp,16(sp)
  406a04:	02c01025 	move	v0,s6
  406a08:	2631ffff 	addiu	s1,s1,-1
  406a0c:	02d3b021 	addu	s6,s6,s3
  406a10:	00d32023 	subu	a0,a2,s3
  406a14:	0086202b 	sltu	a0,a0,a2
  406a18:	10800007 	beqz	a0,406a38 <msort_with_tmp.part.0+0x338>
  406a1c:	00000000 	nop
  406a20:	8c450000 	lw	a1,0(v0)
  406a24:	26100004 	addiu	s0,s0,4
  406a28:	24420004 	addiu	v0,v0,4
  406a2c:	0206202b 	sltu	a0,s0,a2
  406a30:	1480fffb 	bnez	a0,406a20 <msort_with_tmp.part.0+0x320>
  406a34:	ae05fffc 	sw	a1,-4(s0)
  406a38:	1240ffad 	beqz	s2,4068f0 <msort_with_tmp.part.0+0x1f0>
  406a3c:	00c08025 	move	s0,a2
  406a40:	1000ffe7 	b	4069e0 <msort_with_tmp.part.0+0x2e0>
  406a44:	00000000 	nop
  406a48:	03c01025 	move	v0,s8
  406a4c:	2652ffff 	addiu	s2,s2,-1
  406a50:	1000ffef 	b	406a10 <msort_with_tmp.part.0+0x310>
  406a54:	03d3f021 	addu	s8,s8,s3

00406a58 <__qsort_r>:
  406a58:	3c1c004a 	lui	gp,0x4a
  406a5c:	27bdff90 	addiu	sp,sp,-112
  406a60:	279ccae0 	addiu	gp,gp,-13600
  406a64:	afbe0068 	sw	s8,104(sp)
  406a68:	03a0f025 	move	s8,sp
  406a6c:	8f828038 	lw	v0,-32712(gp)
  406a70:	afb40058 	sw	s4,88(sp)
  406a74:	2cd40021 	sltiu	s4,a2,33
  406a78:	afb70064 	sw	s7,100(sp)
  406a7c:	afc20028 	sw	v0,40(s8)
  406a80:	afb5005c 	sw	s5,92(sp)
  406a84:	00c0a825 	move	s5,a2
  406a88:	afb30054 	sw	s3,84(sp)
  406a8c:	00a09825 	move	s3,a1
  406a90:	afb20050 	sw	s2,80(sp)
  406a94:	00809025 	move	s2,a0
  406a98:	afb1004c 	sw	s1,76(sp)
  406a9c:	00e08825 	move	s1,a3
  406aa0:	afbf006c 	sw	ra,108(sp)
  406aa4:	afb60060 	sw	s6,96(sp)
  406aa8:	afb00048 	sw	s0,72(sp)
  406aac:	afbc0018 	sw	gp,24(sp)
  406ab0:	8c420000 	lw	v0,0(v0)
  406ab4:	8fd70080 	lw	s7,128(s8)
  406ab8:	afc20044 	sw	v0,68(s8)
  406abc:	1280005b 	beqz	s4,406c2c <__qsort_r+0x1d4>
  406ac0:	000580c0 	sll	s0,a1,0x3
  406ac4:	70a68002 	mul	s0,a1,a2
  406ac8:	2e020400 	sltiu	v0,s0,1024
  406acc:	1040005c 	beqz	v0,406c40 <__qsort_r+0x1e8>
  406ad0:	3c030049 	lui	v1,0x49
  406ad4:	26020007 	addiu	v0,s0,7
  406ad8:	afc00024 	sw	zero,36(s8)
  406adc:	afd50030 	sw	s5,48(s8)
  406ae0:	000210c2 	srl	v0,v0,0x3
  406ae4:	afd10038 	sw	s1,56(s8)
  406ae8:	afd7003c 	sw	s7,60(s8)
  406aec:	000210c0 	sll	v0,v0,0x3
  406af0:	03a2e823 	subu	sp,sp,v0
  406af4:	27a20018 	addiu	v0,sp,24
  406af8:	afc20040 	sw	v0,64(s8)
  406afc:	24020004 	li	v0,4
  406b00:	1680006b 	bnez	s4,406cb0 <__qsort_r+0x258>
  406b04:	afc20034 	sw	v0,52(s8)
  406b08:	8fc90040 	lw	t1,64(s8)
  406b0c:	00132880 	sll	a1,s3,0x2
  406b10:	0125b021 	addu	s6,t1,a1
  406b14:	02c51021 	addu	v0,s6,a1
  406b18:	afc2002c 	sw	v0,44(s8)
  406b1c:	02c2102b 	sltu	v0,s6,v0
  406b20:	104000bf 	beqz	v0,406e20 <__qsort_r+0x3c8>
  406b24:	02c01025 	move	v0,s6
  406b28:	02401825 	move	v1,s2
  406b2c:	8fc4002c 	lw	a0,44(s8)
  406b30:	24420004 	addiu	v0,v0,4
  406b34:	ac43fffc 	sw	v1,-4(v0)
  406b38:	0044202b 	sltu	a0,v0,a0
  406b3c:	1480fffb 	bnez	a0,406b2c <__qsort_r+0xd4>
  406b40:	00751821 	addu	v1,v1,s5
  406b44:	8fc20040 	lw	v0,64(s8)
  406b48:	00452821 	addu	a1,v0,a1
  406b4c:	24030004 	li	v1,4
  406b50:	2e620002 	sltiu	v0,s3,2
  406b54:	afc30030 	sw	v1,48(s8)
  406b58:	24030003 	li	v1,3
  406b5c:	144000a2 	bnez	v0,406de8 <__qsort_r+0x390>
  406b60:	afc30034 	sw	v1,52(s8)
  406b64:	27c40030 	addiu	a0,s8,48
  406b68:	0c1019c0 	jal	406700 <msort_with_tmp.part.0>
  406b6c:	02603025 	move	a2,s3
  406b70:	8fdc0018 	lw	gp,24(s8)
  406b74:	00008825 	move	s1,zero
  406b78:	10000005 	b	406b90 <__qsort_r+0x138>
  406b7c:	02408025 	move	s0,s2
  406b80:	26310001 	addiu	s1,s1,1
  406b84:	0233102b 	sltu	v0,s1,s3
  406b88:	10400055 	beqz	v0,406ce0 <__qsort_r+0x288>
  406b8c:	02158021 	addu	s0,s0,s5
  406b90:	00111080 	sll	v0,s1,0x2
  406b94:	02c21021 	addu	v0,s6,v0
  406b98:	8c570000 	lw	s7,0(v0)
  406b9c:	12f0fff8 	beq	s7,s0,406b80 <__qsort_r+0x128>
  406ba0:	8f998088 	lw	t9,-32632(gp)
  406ba4:	02a03025 	move	a2,s5
  406ba8:	8fc4002c 	lw	a0,44(s8)
  406bac:	02002825 	move	a1,s0
  406bb0:	0411503b 	bal	41aca0 <memcpy>
  406bb4:	0220a025 	move	s4,s1
  406bb8:	02002025 	move	a0,s0
  406bbc:	10000002 	b	406bc8 <__qsort_r+0x170>
  406bc0:	8fdc0018 	lw	gp,24(s8)
  406bc4:	0060b825 	move	s7,v1
  406bc8:	02f21023 	subu	v0,s7,s2
  406bcc:	8f998088 	lw	t9,-32632(gp)
  406bd0:	02801825 	move	v1,s4
  406bd4:	02a001f4 	teq	s5,zero,0x7
  406bd8:	0055001b 	divu	zero,v0,s5
  406bdc:	00031880 	sll	v1,v1,0x2
  406be0:	02a03025 	move	a2,s5
  406be4:	02c31821 	addu	v1,s6,v1
  406be8:	02e02825 	move	a1,s7
  406bec:	ac640000 	sw	a0,0(v1)
  406bf0:	0411502b 	bal	41aca0 <memcpy>
  406bf4:	0000a012 	mflo	s4
  406bf8:	8fdc0018 	lw	gp,24(s8)
  406bfc:	00141080 	sll	v0,s4,0x2
  406c00:	02c21021 	addu	v0,s6,v0
  406c04:	8c430000 	lw	v1,0(v0)
  406c08:	1470ffee 	bne	v1,s0,406bc4 <__qsort_r+0x16c>
  406c0c:	02e02025 	move	a0,s7
  406c10:	8f998088 	lw	t9,-32632(gp)
  406c14:	02a03025 	move	a2,s5
  406c18:	8fc5002c 	lw	a1,44(s8)
  406c1c:	04115020 	bal	41aca0 <memcpy>
  406c20:	ac570000 	sw	s7,0(v0)
  406c24:	1000ffd6 	b	406b80 <__qsort_r+0x128>
  406c28:	8fdc0018 	lw	gp,24(s8)
  406c2c:	02068021 	addu	s0,s0,a2
  406c30:	2e020400 	sltiu	v0,s0,1024
  406c34:	1440ffa8 	bnez	v0,406ad8 <__qsort_r+0x80>
  406c38:	26020007 	addiu	v0,s0,7
  406c3c:	3c030049 	lui	v1,0x49
  406c40:	8c625404 	lw	v0,21508(v1)
